; Listing generated by Microsoft (R) Optimizing Compiler Version 19.34.31937.0 

include listing.inc

INCLUDELIB LIBCMT
INCLUDELIB OLDNAMES

PUBLIC	rx_ps_shader_bytecode
PUBLIC	rx_vs_shader_bytecode
PUBLIC	stbi_write_tga_with_rle
PUBLIC	stbi_write_png_compression_level
PUBLIC	stbi_write_force_png_filter
_TLS	SEGMENT
ccallocator DQ	FLAT:ccuserallocator_
_TLS	ENDS
_DATA	SEGMENT
$SG35669 DB	'none', 00H
	ORG $+3
$SG35670 DB	'not in table', 00H
	ORG $+3
$SG35671 DB	'already in table', 00H
	ORG $+3
stbi_write_tga_with_rle DD 01H
stbi_write_png_compression_level DD 08H
stbi_write_force_png_filter DD 0ffffffffH
_DATA	ENDS
CONST	SEGMENT
stbi__zlength_base DD 03H
	DD	04H
	DD	05H
	DD	06H
	DD	07H
	DD	08H
	DD	09H
	DD	0aH
	DD	0bH
	DD	0dH
	DD	0fH
	DD	011H
	DD	013H
	DD	017H
	DD	01bH
	DD	01fH
	DD	023H
	DD	02bH
	DD	033H
	DD	03bH
	DD	043H
	DD	053H
	DD	063H
	DD	073H
	DD	083H
	DD	0a3H
	DD	0c3H
	DD	0e3H
	DD	0102H
	DD	00H
	DD	00H
stbir__max_uint8_as_float DD 0437f0000r		; 255
stbi__zlength_extra DD 00H
	DD	00H
	DD	00H
	DD	00H
	DD	00H
	DD	00H
	DD	00H
	DD	00H
	DD	01H
	DD	01H
	DD	01H
	DD	01H
	DD	02H
	DD	02H
	DD	02H
	DD	02H
	DD	03H
	DD	03H
	DD	03H
	DD	03H
	DD	04H
	DD	04H
	DD	04H
	DD	04H
	DD	05H
	DD	05H
	DD	05H
	DD	05H
	DD	00H
	DD	00H
	DD	00H
stbir__max_uint16_as_float DD 0477fff00r	; 65535
stbi__zdist_base DD 01H
	DD	02H
	DD	03H
	DD	04H
	DD	05H
	DD	07H
	DD	09H
	DD	0dH
	DD	011H
	DD	019H
	DD	021H
	DD	031H
	DD	041H
	DD	061H
	DD	081H
	DD	0c1H
	DD	0101H
	DD	0181H
	DD	0201H
	DD	0301H
	DD	0401H
	DD	0601H
	DD	0801H
	DD	0c01H
	DD	01001H
	DD	01801H
	DD	02001H
	DD	03001H
	DD	04001H
	DD	06001H
	DD	00H
	DD	00H
stbi__zdist_extra DD 00H
	DD	00H
	DD	00H
	DD	00H
	DD	01H
	DD	01H
	DD	02H
	DD	02H
	DD	03H
	DD	03H
	DD	04H
	DD	04H
	DD	05H
	DD	05H
	DD	06H
	DD	06H
	DD	07H
	DD	07H
	DD	08H
	DD	08H
	DD	09H
	DD	09H
	DD	0aH
	DD	0aH
	DD	0bH
	DD	0bH
	DD	0cH
	DD	0cH
	DD	0dH
	DD	0dH
	ORG $+8
?length_dezigzag@?1??stbi__compute_huffman_codes@@9@9 DB 010H ; `stbi__compute_huffman_codes'::`2'::length_dezigzag
	DB	011H
	DB	012H
	DB	00H
	DB	08H
	DB	07H
	DB	09H
	DB	06H
	DB	0aH
	DB	05H
	DB	0bH
	DB	04H
	DB	0cH
	DB	03H
	DB	0dH
	DB	02H
	DB	0eH
	DB	01H
	DB	0fH
	ORG $+13
stbi__zdefault_length DB 08H
	DB	08H
	DB	08H
	DB	08H
	DB	08H
	DB	08H
	DB	08H
	DB	08H
	DB	08H
	DB	08H
	DB	08H
	DB	08H
	DB	08H
	DB	08H
	DB	08H
	DB	08H
	DB	08H
	DB	08H
	DB	08H
	DB	08H
	DB	08H
	DB	08H
	DB	08H
	DB	08H
	DB	08H
	DB	08H
	DB	08H
	DB	08H
	DB	08H
	DB	08H
	DB	08H
	DB	08H
	DB	08H
	DB	08H
	DB	08H
	DB	08H
	DB	08H
	DB	08H
	DB	08H
	DB	08H
	DB	08H
	DB	08H
	DB	08H
	DB	08H
	DB	08H
	DB	08H
	DB	08H
	DB	08H
	DB	08H
	DB	08H
	DB	08H
	DB	08H
	DB	08H
	DB	08H
	DB	08H
	DB	08H
	DB	08H
	DB	08H
	DB	08H
	DB	08H
	DB	08H
	DB	08H
	DB	08H
	DB	08H
	DB	08H
	DB	08H
	DB	08H
	DB	08H
	DB	08H
	DB	08H
	DB	08H
	DB	08H
	DB	08H
	DB	08H
	DB	08H
	DB	08H
	DB	08H
	DB	08H
	DB	08H
	DB	08H
	DB	08H
	DB	08H
	DB	08H
	DB	08H
	DB	08H
	DB	08H
	DB	08H
	DB	08H
	DB	08H
	DB	08H
	DB	08H
	DB	08H
	DB	08H
	DB	08H
	DB	08H
	DB	08H
	DB	08H
	DB	08H
	DB	08H
	DB	08H
	DB	08H
	DB	08H
	DB	08H
	DB	08H
	DB	08H
	DB	08H
	DB	08H
	DB	08H
	DB	08H
	DB	08H
	DB	08H
	DB	08H
	DB	08H
	DB	08H
	DB	08H
	DB	08H
	DB	08H
	DB	08H
	DB	08H
	DB	08H
	DB	08H
	DB	08H
	DB	08H
	DB	08H
	DB	08H
	DB	08H
	DB	08H
	DB	08H
	DB	08H
	DB	08H
	DB	08H
	DB	08H
	DB	08H
	DB	08H
	DB	08H
	DB	08H
	DB	08H
	DB	08H
	DB	08H
	DB	08H
	DB	08H
	DB	08H
	DB	08H
	DB	08H
	DB	09H
	DB	09H
	DB	09H
	DB	09H
	DB	09H
	DB	09H
	DB	09H
	DB	09H
	DB	09H
	DB	09H
	DB	09H
	DB	09H
	DB	09H
	DB	09H
	DB	09H
	DB	09H
	DB	09H
	DB	09H
	DB	09H
	DB	09H
	DB	09H
	DB	09H
	DB	09H
	DB	09H
	DB	09H
	DB	09H
	DB	09H
	DB	09H
	DB	09H
	DB	09H
	DB	09H
	DB	09H
	DB	09H
	DB	09H
	DB	09H
	DB	09H
	DB	09H
	DB	09H
	DB	09H
	DB	09H
	DB	09H
	DB	09H
	DB	09H
	DB	09H
	DB	09H
	DB	09H
	DB	09H
	DB	09H
	DB	09H
	DB	09H
	DB	09H
	DB	09H
	DB	09H
	DB	09H
	DB	09H
	DB	09H
	DB	09H
	DB	09H
	DB	09H
	DB	09H
	DB	09H
	DB	09H
	DB	09H
	DB	09H
	DB	09H
	DB	09H
	DB	09H
	DB	09H
	DB	09H
	DB	09H
	DB	09H
	DB	09H
	DB	09H
	DB	09H
	DB	09H
	DB	09H
	DB	09H
	DB	09H
	DB	09H
	DB	09H
	DB	09H
	DB	09H
	DB	09H
	DB	09H
	DB	09H
	DB	09H
	DB	09H
	DB	09H
	DB	09H
	DB	09H
	DB	09H
	DB	09H
	DB	09H
	DB	09H
	DB	09H
	DB	09H
	DB	09H
	DB	09H
	DB	09H
	DB	09H
	DB	09H
	DB	09H
	DB	09H
	DB	09H
	DB	09H
	DB	09H
	DB	09H
	DB	09H
	DB	09H
	DB	09H
	DB	09H
	DB	09H
	DB	07H
	DB	07H
	DB	07H
	DB	07H
	DB	07H
	DB	07H
	DB	07H
	DB	07H
	DB	07H
	DB	07H
	DB	07H
	DB	07H
	DB	07H
	DB	07H
	DB	07H
	DB	07H
	DB	07H
	DB	07H
	DB	07H
	DB	07H
	DB	07H
	DB	07H
	DB	07H
	DB	07H
	DB	08H
	DB	08H
	DB	08H
	DB	08H
	DB	08H
	DB	08H
	DB	08H
	DB	08H
stbi__zdefault_distance DB 05H
	DB	05H
	DB	05H
	DB	05H
	DB	05H
	DB	05H
	DB	05H
	DB	05H
	DB	05H
	DB	05H
	DB	05H
	DB	05H
	DB	05H
	DB	05H
	DB	05H
	DB	05H
	DB	05H
	DB	05H
	DB	05H
	DB	05H
	DB	05H
	DB	05H
	DB	05H
	DB	05H
	DB	05H
	DB	05H
	DB	05H
	DB	05H
	DB	05H
	DB	05H
	DB	05H
	DB	05H
?png_sig@?1??stbi__check_png_header@@9@9 DB 089H	; `stbi__check_png_header'::`2'::png_sig
	DB	050H
	DB	04eH
	DB	047H
	DB	0dH
	DB	0aH
	DB	01aH
	DB	0aH
stbi__depth_scale_table DB 00H
	DB	0ffH
	DB	055H
	DB	00H
	DB	011H
	DB	00H
	DB	00H
	DB	00H
	DB	01H
	ORG $+7
stbir__max_uint32_as_float DQ 041efffffffe00000r ; 4.29497e+09
stbsp__bot DQ	03ff0000000000000r		; 1
	DQ	04024000000000000r		; 10
	DQ	04059000000000000r		; 100
	DQ	0408f400000000000r		; 1000
	DQ	040c3880000000000r		; 10000
	DQ	040f86a0000000000r		; 100000
	DQ	0412e848000000000r		; 1e+06
	DQ	0416312d000000000r		; 1e+07
	DQ	04197d78400000000r		; 1e+08
	DQ	041cdcd6500000000r		; 1e+09
	DQ	04202a05f20000000r		; 1e+10
	DQ	042374876e8000000r		; 1e+11
	DQ	0426d1a94a2000000r		; 1e+12
	DQ	042a2309ce5400000r		; 1e+13
	DQ	042d6bcc41e900000r		; 1e+14
	DQ	0430c6bf526340000r		; 1e+15
	DQ	04341c37937e08000r		; 1e+16
	DQ	04376345785d8a000r		; 1e+17
	DQ	043abc16d674ec800r		; 1e+18
	DQ	043e158e460913d00r		; 1e+19
	DQ	04415af1d78b58c40r		; 1e+20
	DQ	0444b1ae4d6e2ef50r		; 1e+21
	DQ	04480f0cf064dd592r		; 1e+22
?almostone@?1??stbir__linear_to_srgb_uchar@@9@9 DD 03f7fffffH ; `stbir__linear_to_srgb_uchar'::`2'::almostone
	ORG $+4
stbsp__negbot DQ 03fb999999999999ar		; 0.1
	DQ	03f847ae147ae147br		; 0.01
	DQ	03f50624dd2f1a9fcr		; 0.001
	DQ	03f1a36e2eb1c432dr		; 0.0001
	DQ	03ee4f8b588e368f1r		; 1e-05
	DQ	03eb0c6f7a0b5ed8dr		; 1e-06
	DQ	03e7ad7f29abcaf48r		; 1e-07
	DQ	03e45798ee2308c3ar		; 1e-08
	DQ	03e112e0be826d695r		; 1e-09
	DQ	03ddb7cdfd9d7bdbbr		; 1e-10
	DQ	03da5fd7fe1796495r		; 1e-11
	DQ	03d719799812dea11r		; 1e-12
	DQ	03d3c25c268497682r		; 1e-13
	DQ	03d06849b86a12b9br		; 1e-14
	DQ	03cd203af9ee75616r		; 1e-15
	DQ	03c9cd2b297d889bcr		; 1e-16
	DQ	03c670ef54646d497r		; 1e-17
	DQ	03c32725dd1d243acr		; 1e-18
	DQ	03bfd83c94fb6d2acr		; 1e-19
	DQ	03bc79ca10c924223r		; 1e-20
	DQ	03b92e3b40a0e9b4fr		; 1e-21
	DQ	03b5e392010175ee6r		; 1e-22
stbsp__negboterr DQ 0bc5999999999999ar		; -5.55112e-18
	DQ	0bc0eb851eb851eb8r		; -2.08167e-19
	DQ	0bbd89374bc6a7efar		; -2.08167e-20
	DQ	0bbb6a161e4f765fer		; -4.79217e-21
	DQ	0bb8ee78183f91e64r		; -8.18031e-22
	DQ	03b4b5a63f9a49c2cr		; 4.52519e-23
	DQ	03b15e1e99483b023r		; 4.52519e-24
	DQ	0bad03023df2d4c94r		; -2.09226e-25
	DQ	0bab34674bfabb83br		; -6.22816e-26
	DQ	0ba720a5465df8d2cr		; -3.64322e-27
	DQ	03a47f7bc7b4d28aar		; 6.0503e-28
	DQ	039f97f27f0f6e886r		; 2.01134e-29
	DQ	0b9cecd79a5a0df95r		; -3.03737e-30
	DQ	0394ea70909833de7r		; 1.18069e-32
	DQ	0b97937831647f5a0r		; -7.77054e-32
	DQ	03925b4c2ebe68799r		; 2.09022e-33
	DQ	0b90db7b2080a3029r		; -7.15424e-34
	DQ	0b8d7c628066e8ceer		; -7.15424e-35
	DQ	0388a52b31e9e3d07r		; 2.47541e-36
	DQ	038675447a5d8e536r		; 5.48467e-37
	DQ	0383f769fb7e0b75er		; 9.24625e-38
	DQ	0b7fa7566d9cba769r		; -4.85968e-39
stbsp__top DQ	044b52d02c7e14af6r		; 1e+23
	DQ	0497c06a5ec5433c6r		; 1e+46
	DQ	04e428bc8abe49f64r		; 1e+69
	DQ	053088ba3bf284e24r		; 1e+92
	DQ	057d03e29f5c2b18cr		; 1e+115
	DQ	05c957f48bb41db7cr		; 1e+138
	DQ	0615c73892ecbfbf4r		; 1e+161
	DQ	06622d3d6f88f0b3dr		; 1e+184
	DQ	06ae8eb0138858d0ar		; 1e+207
	DQ	06fb07d457124123dr		; 1e+230
	DQ	07475d2ce55747a18r		; 1e+253
	DQ	0793ce2137f743382r		; 1e+276
	DQ	07e031cfd3999f7b0r		; 1e+299
?minval@?1??stbir__linear_to_srgb_uchar@@9@9 DD 039000000H ; `stbir__linear_to_srgb_uchar'::`2'::minval
	ORG $+4
stbsp__negtop DQ 03b282db34012b251r		; 1e-23
	DQ	0366244ce242c5561r		; 1e-46
	DQ	0319b9b6364f30304r		; 1e-69
	DQ	02cd4dbf7b3f71cb7r		; 1e-92
	DQ	0280f8587e7083e30r		; 1e-115
	DQ	02347d12a4670c123r		; 1e-138
	DQ	01e81fee341fc585dr		; 1e-161
	DQ	019bb31bb5dc320d2r		; 1e-184
	DQ	014f48c22ca71a1bdr		; 1e-207
	DQ	0102f0ce4839198dbr		; 1e-230
	DQ	00b677603725064a8r		; 1e-253
	DQ	006a1ba03f5b21000r		; 1e-276
	DQ	001dac9a7b3b7302fr		; 1e-299
?std_dc_luminance_nrcodes@?1??stbi_write_jpg_core@@9@9 DB 00H ; `stbi_write_jpg_core'::`2'::std_dc_luminance_nrcodes
	DB	00H
	DB	01H
	DB	05H
	DB	01H
	DB	01H
	DB	01H
	DB	01H
	DB	01H
	DB	01H
	DB	00H
	DB	00H
	DB	00H
	DB	00H
	DB	00H
	DB	00H
	DB	00H
	ORG $+7
stbsp__toperr DQ 04160000000000000r		; 8.38861e+06
	DQ	045ebb542c80deb40r		; 6.86018e+28
	DQ	0cae83b80b9aab60ar		; -7.25314e+52
	DQ	0cfa32e22d17a166cr		; -4.33773e+75
	DQ	0d4523606902e180er		; -1.55594e+98
	DQ	0d9296fb782462e87r		; -3.28416e+121
	DQ	0ddf358952c0bd011r		; -3.77459e+144
	DQ	0e2a78c1376a34b6cr		; -1.73567e+167
	DQ	0e7817569fc243adfr		; -3.88936e+190
	DQ	0ec5d9365a897aaa6r		; -9.95664e+213
	DQ	07119050c256123a0r		; 6.36413e+236
	DQ	0f5db1799d76cc7a6r		; -5.20691e+259
	DQ	0faa213fe39571a38r		; -5.25048e+282
?std_ac_luminance_nrcodes@?1??stbi_write_jpg_core@@9@9 DB 00H ; `stbi_write_jpg_core'::`2'::std_ac_luminance_nrcodes
	DB	00H
	DB	02H
	DB	01H
	DB	03H
	DB	03H
	DB	02H
	DB	04H
	DB	03H
	DB	05H
	DB	05H
	DB	04H
	DB	04H
	DB	00H
	DB	00H
	DB	01H
	DB	07dH
	ORG $+7
stbsp__negtoperr DQ 037c13badb829e079r		; 3.95653e-40
	DQ	0b2ee46a98d3d9f64r		; -2.2999e-63
	DQ	02e3227c7218a2b65r		; 3.65062e-86
	DQ	02951d96999aa01e9r		; 1.18752e-109
	DQ	0a4acc2229efc3962r		; -5.06449e-132
	DQ	09fecd04a2263407ar		; -6.71568e-155
	DQ	09b123b80f187a157r		; -2.81208e-178
	DQ	0965c4e22914ed912r		; -5.77789e-201
	DQ	0119bc296cdf42f82r		; 7.49971e-224
	DQ	08cc9f9e7f4e16fe1r		; -4.64397e-247
	DQ	0880aeb0a72a8902ar		; -6.36911e-270
	DQ	0834e228e12c13408r		; -9.43681e-293
	DQ	00000000000fa1259r		; 8.09709e-317
?std_dc_chrominance_nrcodes@?1??stbi_write_jpg_core@@9@9 DB 00H ; `stbi_write_jpg_core'::`2'::std_dc_chrominance_nrcodes
	DB	00H
	DB	03H
	DB	01H
	DB	01H
	DB	01H
	DB	01H
	DB	01H
	DB	01H
	DB	01H
	DB	01H
	DB	01H
	DB	00H
	DB	00H
	DB	00H
	DB	00H
	DB	00H
	ORG $+7
stbsp__powten DQ 0000000000000001H
	DQ	000000000000000aH
	DQ	0000000000000064H
	DQ	00000000000003e8H
	DQ	0000000000002710H
	DQ	00000000000186a0H
	DQ	00000000000f4240H
	DQ	0000000000989680H
	DQ	0000000005f5e100H
	DQ	000000003b9aca00H
	DQ	00000002540be400H
	DQ	000000174876e800H
	DQ	000000e8d4a51000H
	DQ	000009184e72a000H
	DQ	00005af3107a4000H
	DQ	00038d7ea4c68000H
	DQ	002386f26fc10000H
	DQ	016345785d8a0000H
	DQ	0de0b6b3a7640000H
	DQ	8ac7230489e80000H
rx_ps_shader_bytecode DB 044H
	DB	058H
	DB	042H
	DB	043H
	DB	089H
	DB	0faH
	DB	064H
	DB	015H
	DB	04cH
	DB	04dH
	DB	0e5H
	DB	0faH
	DB	0a5H
	DB	0c8H
	DB	089H
	DB	091H
	DB	09fH
	DB	00H
	DB	03dH
	DB	0baH
	DB	01H
	DB	00H
	DB	00H
	DB	00H
	DB	04cH
	DB	01H
	DB	00H
	DB	00H
	DB	03H
	DB	00H
	DB	00H
	DB	00H
	DB	02cH
	DB	00H
	DB	00H
	DB	00H
	DB	0a0H
	DB	00H
	DB	00H
	DB	00H
	DB	0d4H
	DB	00H
	DB	00H
	DB	00H
	DB	049H
	DB	053H
	DB	047H
	DB	04eH
	DB	06cH
	DB	00H
	DB	00H
	DB	00H
	DB	03H
	DB	00H
	DB	00H
	DB	00H
	DB	08H
	DB	00H
	DB	00H
	DB	00H
	DB	050H
	DB	00H
	DB	00H
	DB	00H
	DB	00H
	DB	00H
	DB	00H
	DB	00H
	DB	01H
	DB	00H
	DB	00H
	DB	00H
	DB	03H
	DB	00H
	DB	00H
	DB	00H
	DB	00H
	DB	00H
	DB	00H
	DB	00H
	DB	0fH
	DB	00H
	DB	00H
	DB	00H
	DB	05cH
	DB	00H
	DB	00H
	DB	00H
	DB	00H
	DB	00H
	DB	00H
	DB	00H
	DB	00H
	DB	00H
	DB	00H
	DB	00H
	DB	03H
	DB	00H
	DB	00H
	DB	00H
	DB	01H
	DB	00H
	DB	00H
	DB	00H
	DB	0fH
	DB	00H
	DB	00H
	DB	00H
	DB	062H
	DB	00H
	DB	00H
	DB	00H
	DB	00H
	DB	00H
	DB	00H
	DB	00H
	DB	00H
	DB	00H
	DB	00H
	DB	00H
	DB	03H
	DB	00H
	DB	00H
	DB	00H
	DB	02H
	DB	00H
	DB	00H
	DB	00H
	DB	03H
	DB	03H
	DB	00H
	DB	00H
	DB	053H
	DB	056H
	DB	05fH
	DB	050H
	DB	04fH
	DB	053H
	DB	049H
	DB	054H
	DB	049H
	DB	04fH
	DB	04eH
	DB	00H
	DB	043H
	DB	04fH
	DB	04cH
	DB	04fH
	DB	052H
	DB	00H
	DB	054H
	DB	045H
	DB	058H
	DB	043H
	DB	04fH
	DB	04fH
	DB	052H
	DB	044H
	DB	00H
	DB	0abH
	DB	04fH
	DB	053H
	DB	047H
	DB	04eH
	DB	02cH
	DB	00H
	DB	00H
	DB	00H
	DB	01H
	DB	00H
	DB	00H
	DB	00H
	DB	08H
	DB	00H
	DB	00H
	DB	00H
	DB	020H
	DB	00H
	DB	00H
	DB	00H
	DB	00H
	DB	00H
	DB	00H
	DB	00H
	DB	00H
	DB	00H
	DB	00H
	DB	00H
	DB	03H
	DB	00H
	DB	00H
	DB	00H
	DB	00H
	DB	00H
	DB	00H
	DB	00H
	DB	0fH
	DB	00H
	DB	00H
	DB	00H
	DB	053H
	DB	056H
	DB	05fH
	DB	054H
	DB	061H
	DB	072H
	DB	067H
	DB	065H
	DB	074H
	DB	00H
	DB	0abH
	DB	0abH
	DB	053H
	DB	048H
	DB	045H
	DB	058H
	DB	070H
	DB	00H
	DB	00H
	DB	00H
	DB	050H
	DB	00H
	DB	00H
	DB	00H
	DB	01cH
	DB	00H
	DB	00H
	DB	00H
	DB	06aH
	DB	08H
	DB	00H
	DB	01H
	DB	05aH
	DB	00H
	DB	00H
	DB	03H
	DB	00H
	DB	060H
	DB	010H
	DB	00H
	DB	00H
	DB	00H
	DB	00H
	DB	00H
	DB	058H
	DB	018H
	DB	00H
	DB	04H
	DB	00H
	DB	070H
	DB	010H
	DB	00H
	DB	00H
	DB	00H
	DB	00H
	DB	00H
	DB	055H
	DB	055H
	DB	00H
	DB	00H
	DB	062H
	DB	010H
	DB	00H
	DB	03H
	DB	032H
	DB	010H
	DB	010H
	DB	00H
	DB	02H
	DB	00H
	DB	00H
	DB	00H
	DB	065H
	DB	00H
	DB	00H
	DB	03H
	DB	0f2H
	DB	020H
	DB	010H
	DB	00H
	DB	00H
	DB	00H
	DB	00H
	DB	00H
	DB	045H
	DB	00H
	DB	00H
	DB	08bH
	DB	0c2H
	DB	00H
	DB	00H
	DB	080H
	DB	043H
	DB	055H
	DB	015H
	DB	00H
	DB	0f2H
	DB	020H
	DB	010H
	DB	00H
	DB	00H
	DB	00H
	DB	00H
	DB	00H
	DB	046H
	DB	010H
	DB	010H
	DB	00H
	DB	02H
	DB	00H
	DB	00H
	DB	00H
	DB	046H
	DB	07eH
	DB	010H
	DB	00H
	DB	00H
	DB	00H
	DB	00H
	DB	00H
	DB	00H
	DB	060H
	DB	010H
	DB	00H
	DB	00H
	DB	00H
	DB	00H
	DB	00H
	DB	03eH
	DB	00H
	DB	00H
	DB	01H
	ORG $+4
rx_vs_shader_bytecode DB 044H
	DB	058H
	DB	042H
	DB	043H
	DB	047H
	DB	065H
	DB	016H
	DB	082H
	DB	080H
	DB	05eH
	DB	0f7H
	DB	0cH
	DB	04bH
	DB	078H
	DB	057H
	DB	0c8H
	DB	06fH
	DB	0daH
	DB	015H
	DB	0d1H
	DB	01H
	DB	00H
	DB	00H
	DB	00H
	DB	01cH
	DB	02H
	DB	00H
	DB	00H
	DB	03H
	DB	00H
	DB	00H
	DB	00H
	DB	02cH
	DB	00H
	DB	00H
	DB	00H
	DB	09cH
	DB	00H
	DB	00H
	DB	00H
	DB	010H
	DB	01H
	DB	00H
	DB	00H
	DB	049H
	DB	053H
	DB	047H
	DB	04eH
	DB	068H
	DB	00H
	DB	00H
	DB	00H
	DB	03H
	DB	00H
	DB	00H
	DB	00H
	DB	08H
	DB	00H
	DB	00H
	DB	00H
	DB	050H
	DB	00H
	DB	00H
	DB	00H
	DB	00H
	DB	00H
	DB	00H
	DB	00H
	DB	00H
	DB	00H
	DB	00H
	DB	00H
	DB	03H
	DB	00H
	DB	00H
	DB	00H
	DB	00H
	DB	00H
	DB	00H
	DB	00H
	DB	03H
	DB	03H
	DB	00H
	DB	00H
	DB	059H
	DB	00H
	DB	00H
	DB	00H
	DB	00H
	DB	00H
	DB	00H
	DB	00H
	DB	00H
	DB	00H
	DB	00H
	DB	00H
	DB	03H
	DB	00H
	DB	00H
	DB	00H
	DB	01H
	DB	00H
	DB	00H
	DB	00H
	DB	0fH
	DB	0fH
	DB	00H
	DB	00H
	DB	05fH
	DB	00H
	DB	00H
	DB	00H
	DB	00H
	DB	00H
	DB	00H
	DB	00H
	DB	00H
	DB	00H
	DB	00H
	DB	00H
	DB	03H
	DB	00H
	DB	00H
	DB	00H
	DB	02H
	DB	00H
	DB	00H
	DB	00H
	DB	03H
	DB	03H
	DB	00H
	DB	00H
	DB	050H
	DB	04fH
	DB	053H
	DB	049H
	DB	054H
	DB	049H
	DB	04fH
	DB	04eH
	DB	00H
	DB	043H
	DB	04fH
	DB	04cH
	DB	04fH
	DB	052H
	DB	00H
	DB	054H
	DB	045H
	DB	058H
	DB	043H
	DB	04fH
	DB	04fH
	DB	052H
	DB	044H
	DB	00H
	DB	04fH
	DB	053H
	DB	047H
	DB	04eH
	DB	06cH
	DB	00H
	DB	00H
	DB	00H
	DB	03H
	DB	00H
	DB	00H
	DB	00H
	DB	08H
	DB	00H
	DB	00H
	DB	00H
	DB	050H
	DB	00H
	DB	00H
	DB	00H
	DB	00H
	DB	00H
	DB	00H
	DB	00H
	DB	01H
	DB	00H
	DB	00H
	DB	00H
	DB	03H
	DB	00H
	DB	00H
	DB	00H
	DB	00H
	DB	00H
	DB	00H
	DB	00H
	DB	0fH
	DB	00H
	DB	00H
	DB	00H
	DB	05cH
	DB	00H
	DB	00H
	DB	00H
	DB	00H
	DB	00H
	DB	00H
	DB	00H
	DB	00H
	DB	00H
	DB	00H
	DB	00H
	DB	03H
	DB	00H
	DB	00H
	DB	00H
	DB	01H
	DB	00H
	DB	00H
	DB	00H
	DB	0fH
	DB	00H
	DB	00H
	DB	00H
	DB	062H
	DB	00H
	DB	00H
	DB	00H
	DB	00H
	DB	00H
	DB	00H
	DB	00H
	DB	00H
	DB	00H
	DB	00H
	DB	00H
	DB	03H
	DB	00H
	DB	00H
	DB	00H
	DB	02H
	DB	00H
	DB	00H
	DB	00H
	DB	03H
	DB	0cH
	DB	00H
	DB	00H
	DB	053H
	DB	056H
	DB	05fH
	DB	050H
	DB	04fH
	DB	053H
	DB	049H
	DB	054H
	DB	049H
	DB	04fH
	DB	04eH
	DB	00H
	DB	043H
	DB	04fH
	DB	04cH
	DB	04fH
	DB	052H
	DB	00H
	DB	054H
	DB	045H
	DB	058H
	DB	043H
	DB	04fH
	DB	04fH
	DB	052H
	DB	044H
	DB	00H
	DB	0abH
	DB	053H
	DB	048H
	DB	045H
	DB	058H
	DB	04H
	DB	01H
	DB	00H
	DB	00H
	DB	050H
	DB	00H
	DB	01H
	DB	00H
	DB	041H
	DB	00H
	DB	00H
	DB	00H
	DB	06aH
	DB	08H
	DB	00H
	DB	01H
	DB	059H
	DB	00H
	DB	00H
	DB	04H
	DB	046H
	DB	08eH
	DB	020H
	DB	00H
	DB	00H
	DB	00H
	DB	00H
	DB	00H
	DB	04H
	DB	00H
	DB	00H
	DB	00H
	DB	05fH
	DB	00H
	DB	00H
	DB	03H
	DB	032H
	DB	010H
	DB	010H
	DB	00H
	DB	00H
	DB	00H
	DB	00H
	DB	00H
	DB	05fH
	DB	00H
	DB	00H
	DB	03H
	DB	0f2H
	DB	010H
	DB	010H
	DB	00H
	DB	01H
	DB	00H
	DB	00H
	DB	00H
	DB	05fH
	DB	00H
	DB	00H
	DB	03H
	DB	032H
	DB	010H
	DB	010H
	DB	00H
	DB	02H
	DB	00H
	DB	00H
	DB	00H
	DB	067H
	DB	00H
	DB	00H
	DB	04H
	DB	0f2H
	DB	020H
	DB	010H
	DB	00H
	DB	00H
	DB	00H
	DB	00H
	DB	00H
	DB	01H
	DB	00H
	DB	00H
	DB	00H
	DB	065H
	DB	00H
	DB	00H
	DB	03H
	DB	0f2H
	DB	020H
	DB	010H
	DB	00H
	DB	01H
	DB	00H
	DB	00H
	DB	00H
	DB	065H
	DB	00H
	DB	00H
	DB	03H
	DB	032H
	DB	020H
	DB	010H
	DB	00H
	DB	02H
	DB	00H
	DB	00H
	DB	00H
	DB	068H
	DB	00H
	DB	00H
	DB	02H
	DB	01H
	DB	00H
	DB	00H
	DB	00H
	DB	038H
	DB	00H
	DB	00H
	DB	08H
	DB	0f2H
	DB	00H
	DB	010H
	DB	00H
	DB	00H
	DB	00H
	DB	00H
	DB	00H
	DB	056H
	DB	015H
	DB	010H
	DB	00H
	DB	00H
	DB	00H
	DB	00H
	DB	00H
	DB	046H
	DB	08eH
	DB	020H
	DB	00H
	DB	00H
	DB	00H
	DB	00H
	DB	00H
	DB	01H
	DB	00H
	DB	00H
	DB	00H
	DB	032H
	DB	00H
	DB	00H
	DB	0aH
	DB	0f2H
	DB	00H
	DB	010H
	DB	00H
	DB	00H
	DB	00H
	DB	00H
	DB	00H
	DB	046H
	DB	08eH
	DB	020H
	DB	00H
	DB	00H
	DB	00H
	DB	00H
	DB	00H
	DB	00H
	DB	00H
	DB	00H
	DB	00H
	DB	06H
	DB	010H
	DB	010H
	DB	00H
	DB	00H
	DB	00H
	DB	00H
	DB	00H
	DB	046H
	DB	0eH
	DB	010H
	DB	00H
	DB	00H
	DB	00H
	DB	00H
	DB	00H
	DB	00H
	DB	00H
	DB	00H
	DB	08H
	DB	0f2H
	DB	020H
	DB	010H
	DB	00H
	DB	00H
	DB	00H
	DB	00H
	DB	00H
	DB	046H
	DB	0eH
	DB	010H
	DB	00H
	DB	00H
	DB	00H
	DB	00H
	DB	00H
	DB	046H
	DB	08eH
	DB	020H
	DB	00H
	DB	00H
	DB	00H
	DB	00H
	DB	00H
	DB	03H
	DB	00H
	DB	00H
	DB	00H
	DB	036H
	DB	00H
	DB	00H
	DB	05H
	DB	0f2H
	DB	020H
	DB	010H
	DB	00H
	DB	01H
	DB	00H
	DB	00H
	DB	00H
	DB	046H
	DB	01eH
	DB	010H
	DB	00H
	DB	01H
	DB	00H
	DB	00H
	DB	00H
	DB	036H
	DB	00H
	DB	00H
	DB	05H
	DB	032H
	DB	020H
	DB	010H
	DB	00H
	DB	02H
	DB	00H
	DB	00H
	DB	00H
	DB	046H
	DB	010H
	DB	010H
	DB	00H
	DB	02H
	DB	00H
	DB	00H
	DB	00H
	DB	03eH
	DB	00H
	DB	00H
	DB	01H
	ORG $+4
fp32_to_srgb8_tab4 DD 073000dH
	DD	07a000dH
	DD	080000dH
	DD	087000dH
	DD	08d000dH
	DD	094000dH
	DD	09a000dH
	DD	0a1000dH
	DD	0a7001aH
	DD	0b4001aH
	DD	0c1001aH
	DD	0ce001aH
	DD	0da001aH
	DD	0e7001aH
	DD	0f4001aH
	DD	0101001aH
	DD	010e0033H
	DD	01280033H
	DD	01410033H
	DD	015b0033H
	DD	01750033H
	DD	018f0033H
	DD	01a80033H
	DD	01c20033H
	DD	01dc0067H
	DD	020f0067H
	DD	02430067H
	DD	02760067H
	DD	02aa0067H
	DD	02dd0067H
	DD	03110067H
	DD	03440067H
	DD	037800ceH
	DD	03df00ceH
	DD	044600ceH
	DD	04ad00ceH
	DD	051400ceH
	DD	057b00c5H
	DD	05dd00bcH
	DD	063b00b5H
	DD	06970158H
	DD	07420142H
	DD	07e30130H
	DD	087b0120H
	DD	090b0112H
	DD	09940106H
	DD	0a1700fcH
	DD	0a9500f2H
	DD	0b0f01cbH
	DD	0bf401aeH
	DD	0ccb0195H
	DD	0d950180H
	DD	0e56016eH
	DD	0f0d015eH
	DD	0fbc0150H
	DD	010630143H
	DD	011070264H
	DD	01238023eH
	DD	01357021dH
	DD	014660201H
	DD	0156601e9H
	DD	0165a01d3H
	DD	0174401c0H
	DD	0182401afH
	DD	018fe0331H
	DD	01a9602feH
	DD	01c1502d2H
	DD	01d7e02adH
	DD	01ed4028dH
	DD	0201a0270H
	DD	021520256H
	DD	0227d0240H
	DD	0239f0443H
	DD	025c003feH
	DD	027bf03c4H
	DD	029a10392H
	DD	02b6a0367H
	DD	02d1d0341H
	DD	02ebe031fH
	DD	0304d0300H
	DD	031d105b0H
	DD	034a80555H
	DD	037520507H
	DD	039d504c5H
	DD	03c37048bH
	DD	03e7c0458H
	DD	040a8042aH
	DD	042bd0401H
	DD	044c20798H
	DD	0488e071eH
	DD	04c1c06b6H
	DD	04f76065dH
	DD	052a50610H
	DD	055ac05ccH
	DD	05892058fH
	DD	05b590559H
	DD	05e0c0a23H
	DD	0631c0980H
	DD	067db08f6H
	DD	06c55087fH
	DD	070940818H
	DD	074a007bdH
	DD	0787d076cH
	DD	07c330723H
stbi__bmask DD	00H
	DD	01H
	DD	03H
	DD	07H
	DD	0fH
	DD	01fH
	DD	03fH
	DD	07fH
	DD	0ffH
	DD	01ffH
	DD	03ffH
	DD	07ffH
	DD	0fffH
	DD	01fffH
	DD	03fffH
	DD	07fffH
	DD	0ffffH
?fillBits@?L@??stbi_write_jpg_core@@9@9 DW 07fH		; `stbi_write_jpg_core'::`11'::fillBits
	DW	07H
?std_ac_chrominance_nrcodes@?1??stbi_write_jpg_core@@9@9 DB 00H ; `stbi_write_jpg_core'::`2'::std_ac_chrominance_nrcodes
	DB	00H
	DB	02H
	DB	01H
	DB	02H
	DB	04H
	DB	04H
	DB	03H
	DB	04H
	DB	07H
	DB	05H
	DB	04H
	DB	04H
	DB	00H
	DB	01H
	DB	02H
	DB	077H
	ORG $+7
stbi__jbias DD	00H
	DD	0ffffffffH
	DD	0fffffffdH
	DD	0fffffff9H
	DD	0fffffff1H
	DD	0ffffffe1H
	DD	0ffffffc1H
	DD	0ffffff81H
	DD	0ffffff01H
	DD	0fffffe01H
	DD	0fffffc01H
	DD	0fffff801H
	DD	0fffff001H
	DD	0ffffe001H
	DD	0ffffc001H
	DD	0ffff8001H
stbi__jpeg_dezigzag DB 00H
	DB	01H
	DB	08H
	DB	010H
	DB	09H
	DB	02H
	DB	03H
	DB	0aH
	DB	011H
	DB	018H
	DB	020H
	DB	019H
	DB	012H
	DB	0bH
	DB	04H
	DB	05H
	DB	0cH
	DB	013H
	DB	01aH
	DB	021H
	DB	028H
	DB	030H
	DB	029H
	DB	022H
	DB	01bH
	DB	014H
	DB	0dH
	DB	06H
	DB	07H
	DB	0eH
	DB	015H
	DB	01cH
	DB	023H
	DB	02aH
	DB	031H
	DB	038H
	DB	039H
	DB	032H
	DB	02bH
	DB	024H
	DB	01dH
	DB	016H
	DB	0fH
	DB	017H
	DB	01eH
	DB	025H
	DB	02cH
	DB	033H
	DB	03aH
	DB	03bH
	DB	034H
	DB	02dH
	DB	026H
	DB	01fH
	DB	027H
	DB	02eH
	DB	035H
	DB	03cH
	DB	03dH
	DB	036H
	DB	02fH
	DB	037H
	DB	03eH
	DB	03fH
	DB	03fH
	DB	03fH
	DB	03fH
	DB	03fH
	DB	03fH
	DB	03fH
	DB	03fH
	DB	03fH
	DB	03fH
	DB	03fH
	DB	03fH
	DB	03fH
	DB	03fH
	DB	03fH
	DB	03fH
	ORG $+1
stbiw__jpg_ZigZag DB 00H
	DB	01H
	DB	05H
	DB	06H
	DB	0eH
	DB	0fH
	DB	01bH
	DB	01cH
	DB	02H
	DB	04H
	DB	07H
	DB	0dH
	DB	010H
	DB	01aH
	DB	01dH
	DB	02aH
	DB	03H
	DB	08H
	DB	0cH
	DB	011H
	DB	019H
	DB	01eH
	DB	029H
	DB	02bH
	DB	09H
	DB	0bH
	DB	012H
	DB	018H
	DB	01fH
	DB	028H
	DB	02cH
	DB	035H
	DB	0aH
	DB	013H
	DB	017H
	DB	020H
	DB	027H
	DB	02dH
	DB	034H
	DB	036H
	DB	014H
	DB	016H
	DB	021H
	DB	026H
	DB	02eH
	DB	033H
	DB	037H
	DB	03cH
	DB	015H
	DB	022H
	DB	025H
	DB	02fH
	DB	032H
	DB	038H
	DB	03bH
	DB	03dH
	DB	023H
	DB	024H
	DB	030H
	DB	031H
	DB	039H
	DB	03aH
	DB	03eH
	DB	03fH
?std_dc_luminance_values@?1??stbi_write_jpg_core@@9@9 DB 00H ; `stbi_write_jpg_core'::`2'::std_dc_luminance_values
	DB	01H
	DB	02H
	DB	03H
	DB	04H
	DB	05H
	DB	06H
	DB	07H
	DB	08H
	DB	09H
	DB	0aH
	DB	0bH
	ORG $+4
?std_ac_luminance_values@?1??stbi_write_jpg_core@@9@9 DB 01H ; `stbi_write_jpg_core'::`2'::std_ac_luminance_values
	DB	02H
	DB	03H
	DB	00H
	DB	04H
	DB	011H
	DB	05H
	DB	012H
	DB	021H
	DB	031H
	DB	041H
	DB	06H
	DB	013H
	DB	051H
	DB	061H
	DB	07H
	DB	022H
	DB	071H
	DB	014H
	DB	032H
	DB	081H
	DB	091H
	DB	0a1H
	DB	08H
	DB	023H
	DB	042H
	DB	0b1H
	DB	0c1H
	DB	015H
	DB	052H
	DB	0d1H
	DB	0f0H
	DB	024H
	DB	033H
	DB	062H
	DB	072H
	DB	082H
	DB	09H
	DB	0aH
	DB	016H
	DB	017H
	DB	018H
	DB	019H
	DB	01aH
	DB	025H
	DB	026H
	DB	027H
	DB	028H
	DB	029H
	DB	02aH
	DB	034H
	DB	035H
	DB	036H
	DB	037H
	DB	038H
	DB	039H
	DB	03aH
	DB	043H
	DB	044H
	DB	045H
	DB	046H
	DB	047H
	DB	048H
	DB	049H
	DB	04aH
	DB	053H
	DB	054H
	DB	055H
	DB	056H
	DB	057H
	DB	058H
	DB	059H
	DB	05aH
	DB	063H
	DB	064H
	DB	065H
	DB	066H
	DB	067H
	DB	068H
	DB	069H
	DB	06aH
	DB	073H
	DB	074H
	DB	075H
	DB	076H
	DB	077H
	DB	078H
	DB	079H
	DB	07aH
	DB	083H
	DB	084H
	DB	085H
	DB	086H
	DB	087H
	DB	088H
	DB	089H
	DB	08aH
	DB	092H
	DB	093H
	DB	094H
	DB	095H
	DB	096H
	DB	097H
	DB	098H
	DB	099H
	DB	09aH
	DB	0a2H
	DB	0a3H
	DB	0a4H
	DB	0a5H
	DB	0a6H
	DB	0a7H
	DB	0a8H
	DB	0a9H
	DB	0aaH
	DB	0b2H
	DB	0b3H
	DB	0b4H
	DB	0b5H
	DB	0b6H
	DB	0b7H
	DB	0b8H
	DB	0b9H
	DB	0baH
	DB	0c2H
	DB	0c3H
	DB	0c4H
	DB	0c5H
	DB	0c6H
	DB	0c7H
	DB	0c8H
	DB	0c9H
	DB	0caH
	DB	0d2H
	DB	0d3H
	DB	0d4H
	DB	0d5H
	DB	0d6H
	DB	0d7H
	DB	0d8H
	DB	0d9H
	DB	0daH
	DB	0e1H
	DB	0e2H
	DB	0e3H
	DB	0e4H
	DB	0e5H
	DB	0e6H
	DB	0e7H
	DB	0e8H
	DB	0e9H
	DB	0eaH
	DB	0f1H
	DB	0f2H
	DB	0f3H
	DB	0f4H
	DB	0f5H
	DB	0f6H
	DB	0f7H
	DB	0f8H
	DB	0f9H
	DB	0faH
	ORG $+2
?rgb@?5??stbi__process_frame_header@@9@9 DB 052H	; `stbi__process_frame_header'::`6'::rgb
	DB	047H
	DB	042H
	ORG $+1
?std_dc_chrominance_values@?1??stbi_write_jpg_core@@9@9 DB 00H ; `stbi_write_jpg_core'::`2'::std_dc_chrominance_values
	DB	01H
	DB	02H
	DB	03H
	DB	04H
	DB	05H
	DB	06H
	DB	07H
	DB	08H
	DB	09H
	DB	0aH
	DB	0bH
?tag@?O@??stbi__process_marker@@9@9 DB 04aH		; `stbi__process_marker'::`14'::tag
	DB	046H
	DB	049H
	DB	046H
	DB	00H
	ORG $+7
?std_ac_chrominance_values@?1??stbi_write_jpg_core@@9@9 DB 00H ; `stbi_write_jpg_core'::`2'::std_ac_chrominance_values
	DB	01H
	DB	02H
	DB	03H
	DB	011H
	DB	04H
	DB	05H
	DB	021H
	DB	031H
	DB	06H
	DB	012H
	DB	041H
	DB	051H
	DB	07H
	DB	061H
	DB	071H
	DB	013H
	DB	022H
	DB	032H
	DB	081H
	DB	08H
	DB	014H
	DB	042H
	DB	091H
	DB	0a1H
	DB	0b1H
	DB	0c1H
	DB	09H
	DB	023H
	DB	033H
	DB	052H
	DB	0f0H
	DB	015H
	DB	062H
	DB	072H
	DB	0d1H
	DB	0aH
	DB	016H
	DB	024H
	DB	034H
	DB	0e1H
	DB	025H
	DB	0f1H
	DB	017H
	DB	018H
	DB	019H
	DB	01aH
	DB	026H
	DB	027H
	DB	028H
	DB	029H
	DB	02aH
	DB	035H
	DB	036H
	DB	037H
	DB	038H
	DB	039H
	DB	03aH
	DB	043H
	DB	044H
	DB	045H
	DB	046H
	DB	047H
	DB	048H
	DB	049H
	DB	04aH
	DB	053H
	DB	054H
	DB	055H
	DB	056H
	DB	057H
	DB	058H
	DB	059H
	DB	05aH
	DB	063H
	DB	064H
	DB	065H
	DB	066H
	DB	067H
	DB	068H
	DB	069H
	DB	06aH
	DB	073H
	DB	074H
	DB	075H
	DB	076H
	DB	077H
	DB	078H
	DB	079H
	DB	07aH
	DB	082H
	DB	083H
	DB	084H
	DB	085H
	DB	086H
	DB	087H
	DB	088H
	DB	089H
	DB	08aH
	DB	092H
	DB	093H
	DB	094H
	DB	095H
	DB	096H
	DB	097H
	DB	098H
	DB	099H
	DB	09aH
	DB	0a2H
	DB	0a3H
	DB	0a4H
	DB	0a5H
	DB	0a6H
	DB	0a7H
	DB	0a8H
	DB	0a9H
	DB	0aaH
	DB	0b2H
	DB	0b3H
	DB	0b4H
	DB	0b5H
	DB	0b6H
	DB	0b7H
	DB	0b8H
	DB	0b9H
	DB	0baH
	DB	0c2H
	DB	0c3H
	DB	0c4H
	DB	0c5H
	DB	0c6H
	DB	0c7H
	DB	0c8H
	DB	0c9H
	DB	0caH
	DB	0d2H
	DB	0d3H
	DB	0d4H
	DB	0d5H
	DB	0d6H
	DB	0d7H
	DB	0d8H
	DB	0d9H
	DB	0daH
	DB	0e2H
	DB	0e3H
	DB	0e4H
	DB	0e5H
	DB	0e6H
	DB	0e7H
	DB	0e8H
	DB	0e9H
	DB	0eaH
	DB	0f2H
	DB	0f3H
	DB	0f4H
	DB	0f5H
	DB	0f6H
	DB	0f7H
	DB	0f8H
	DB	0f9H
	DB	0faH
	ORG $+6
?aasf@?1??stbi_write_jpg_core@@9@9 DD 0403504f3r ; 2.82843 ; `stbi_write_jpg_core'::`2'::aasf
	DD	0407b14bfr			; 3.92314
	DD	0406c835fr			; 3.69552
	DD	04054db30r			; 3.32588
	DD	0403504f3r			; 2.82843
	DD	0400e39dar			; 2.22228
	DD	03fc3ef15r			; 1.53073
	DD	03f47c5c2r			; 0.780361
?tag@?BA@??stbi__process_marker@@9@9 DB 041H		; `stbi__process_marker'::`16'::tag
	DB	064H
	DB	06fH
	DB	062H
	DB	065H
	DB	00H
	ORG $+2
?YDC_HT@?1??stbi_write_jpg_core@@9@9 DW 00H		; `stbi_write_jpg_core'::`2'::YDC_HT
	DW	02H
	DW	02H
	DW	03H
	DW	03H
	DW	03H
	DW	04H
	DW	03H
	DW	05H
	DW	03H
	DW	06H
	DW	03H
	DW	0eH
	DW	04H
	DW	01eH
	DW	05H
	DW	03eH
	DW	06H
	DW	07eH
	DW	07H
	DW	0feH
	DW	08H
	DW	01feH
	DW	09H
	ORG $+976
?UVDC_HT@?1??stbi_write_jpg_core@@9@9 DW 00H		; `stbi_write_jpg_core'::`2'::UVDC_HT
	DW	02H
	DW	01H
	DW	02H
	DW	02H
	DW	02H
	DW	06H
	DW	03H
	DW	0eH
	DW	04H
	DW	01eH
	DW	05H
	DW	03eH
	DW	06H
	DW	07eH
	DW	07H
	DW	0feH
	DW	08H
	DW	01feH
	DW	09H
	DW	03feH
	DW	0aH
	DW	07feH
	DW	0bH
	ORG $+976
?YAC_HT@?1??stbi_write_jpg_core@@9@9 DW 0aH		; `stbi_write_jpg_core'::`2'::YAC_HT
	DW	04H
	DW	00H
	DW	02H
	DW	01H
	DW	02H
	DW	04H
	DW	03H
	DW	0bH
	DW	04H
	DW	01aH
	DW	05H
	DW	078H
	DW	07H
	DW	0f8H
	DW	08H
	DW	03f6H
	DW	0aH
	DW	0ff82H
	DW	010H
	DW	0ff83H
	DW	010H
	DW	00H
	DW	00H
	DW	00H
	DW	00H
	DW	00H
	DW	00H
	DW	00H
	DW	00H
	DW	00H
	DW	00H
	DW	00H
	DW	00H
	DW	0cH
	DW	04H
	DW	01bH
	DW	05H
	DW	079H
	DW	07H
	DW	01f6H
	DW	09H
	DW	07f6H
	DW	0bH
	DW	0ff84H
	DW	010H
	DW	0ff85H
	DW	010H
	DW	0ff86H
	DW	010H
	DW	0ff87H
	DW	010H
	DW	0ff88H
	DW	010H
	DW	00H
	DW	00H
	DW	00H
	DW	00H
	DW	00H
	DW	00H
	DW	00H
	DW	00H
	DW	00H
	DW	00H
	DW	00H
	DW	00H
	DW	01cH
	DW	05H
	DW	0f9H
	DW	08H
	DW	03f7H
	DW	0aH
	DW	0ff4H
	DW	0cH
	DW	0ff89H
	DW	010H
	DW	0ff8aH
	DW	010H
	DW	0ff8bH
	DW	010H
	DW	0ff8cH
	DW	010H
	DW	0ff8dH
	DW	010H
	DW	0ff8eH
	DW	010H
	DW	00H
	DW	00H
	DW	00H
	DW	00H
	DW	00H
	DW	00H
	DW	00H
	DW	00H
	DW	00H
	DW	00H
	DW	00H
	DW	00H
	DW	03aH
	DW	06H
	DW	01f7H
	DW	09H
	DW	0ff5H
	DW	0cH
	DW	0ff8fH
	DW	010H
	DW	0ff90H
	DW	010H
	DW	0ff91H
	DW	010H
	DW	0ff92H
	DW	010H
	DW	0ff93H
	DW	010H
	DW	0ff94H
	DW	010H
	DW	0ff95H
	DW	010H
	DW	00H
	DW	00H
	DW	00H
	DW	00H
	DW	00H
	DW	00H
	DW	00H
	DW	00H
	DW	00H
	DW	00H
	DW	00H
	DW	00H
	DW	03bH
	DW	06H
	DW	03f8H
	DW	0aH
	DW	0ff96H
	DW	010H
	DW	0ff97H
	DW	010H
	DW	0ff98H
	DW	010H
	DW	0ff99H
	DW	010H
	DW	0ff9aH
	DW	010H
	DW	0ff9bH
	DW	010H
	DW	0ff9cH
	DW	010H
	DW	0ff9dH
	DW	010H
	DW	00H
	DW	00H
	DW	00H
	DW	00H
	DW	00H
	DW	00H
	DW	00H
	DW	00H
	DW	00H
	DW	00H
	DW	00H
	DW	00H
	DW	07aH
	DW	07H
	DW	07f7H
	DW	0bH
	DW	0ff9eH
	DW	010H
	DW	0ff9fH
	DW	010H
	DW	0ffa0H
	DW	010H
	DW	0ffa1H
	DW	010H
	DW	0ffa2H
	DW	010H
	DW	0ffa3H
	DW	010H
	DW	0ffa4H
	DW	010H
	DW	0ffa5H
	DW	010H
	DW	00H
	DW	00H
	DW	00H
	DW	00H
	DW	00H
	DW	00H
	DW	00H
	DW	00H
	DW	00H
	DW	00H
	DW	00H
	DW	00H
	DW	07bH
	DW	07H
	DW	0ff6H
	DW	0cH
	DW	0ffa6H
	DW	010H
	DW	0ffa7H
	DW	010H
	DW	0ffa8H
	DW	010H
	DW	0ffa9H
	DW	010H
	DW	0ffaaH
	DW	010H
	DW	0ffabH
	DW	010H
	DW	0ffacH
	DW	010H
	DW	0ffadH
	DW	010H
	DW	00H
	DW	00H
	DW	00H
	DW	00H
	DW	00H
	DW	00H
	DW	00H
	DW	00H
	DW	00H
	DW	00H
	DW	00H
	DW	00H
	DW	0faH
	DW	08H
	DW	0ff7H
	DW	0cH
	DW	0ffaeH
	DW	010H
	DW	0ffafH
	DW	010H
	DW	0ffb0H
	DW	010H
	DW	0ffb1H
	DW	010H
	DW	0ffb2H
	DW	010H
	DW	0ffb3H
	DW	010H
	DW	0ffb4H
	DW	010H
	DW	0ffb5H
	DW	010H
	DW	00H
	DW	00H
	DW	00H
	DW	00H
	DW	00H
	DW	00H
	DW	00H
	DW	00H
	DW	00H
	DW	00H
	DW	00H
	DW	00H
	DW	01f8H
	DW	09H
	DW	07fc0H
	DW	0fH
	DW	0ffb6H
	DW	010H
	DW	0ffb7H
	DW	010H
	DW	0ffb8H
	DW	010H
	DW	0ffb9H
	DW	010H
	DW	0ffbaH
	DW	010H
	DW	0ffbbH
	DW	010H
	DW	0ffbcH
	DW	010H
	DW	0ffbdH
	DW	010H
	DW	00H
	DW	00H
	DW	00H
	DW	00H
	DW	00H
	DW	00H
	DW	00H
	DW	00H
	DW	00H
	DW	00H
	DW	00H
	DW	00H
	DW	01f9H
	DW	09H
	DW	0ffbeH
	DW	010H
	DW	0ffbfH
	DW	010H
	DW	0ffc0H
	DW	010H
	DW	0ffc1H
	DW	010H
	DW	0ffc2H
	DW	010H
	DW	0ffc3H
	DW	010H
	DW	0ffc4H
	DW	010H
	DW	0ffc5H
	DW	010H
	DW	0ffc6H
	DW	010H
	DW	00H
	DW	00H
	DW	00H
	DW	00H
	DW	00H
	DW	00H
	DW	00H
	DW	00H
	DW	00H
	DW	00H
	DW	00H
	DW	00H
	DW	01faH
	DW	09H
	DW	0ffc7H
	DW	010H
	DW	0ffc8H
	DW	010H
	DW	0ffc9H
	DW	010H
	DW	0ffcaH
	DW	010H
	DW	0ffcbH
	DW	010H
	DW	0ffccH
	DW	010H
	DW	0ffcdH
	DW	010H
	DW	0ffceH
	DW	010H
	DW	0ffcfH
	DW	010H
	DW	00H
	DW	00H
	DW	00H
	DW	00H
	DW	00H
	DW	00H
	DW	00H
	DW	00H
	DW	00H
	DW	00H
	DW	00H
	DW	00H
	DW	03f9H
	DW	0aH
	DW	0ffd0H
	DW	010H
	DW	0ffd1H
	DW	010H
	DW	0ffd2H
	DW	010H
	DW	0ffd3H
	DW	010H
	DW	0ffd4H
	DW	010H
	DW	0ffd5H
	DW	010H
	DW	0ffd6H
	DW	010H
	DW	0ffd7H
	DW	010H
	DW	0ffd8H
	DW	010H
	DW	00H
	DW	00H
	DW	00H
	DW	00H
	DW	00H
	DW	00H
	DW	00H
	DW	00H
	DW	00H
	DW	00H
	DW	00H
	DW	00H
	DW	03faH
	DW	0aH
	DW	0ffd9H
	DW	010H
	DW	0ffdaH
	DW	010H
	DW	0ffdbH
	DW	010H
	DW	0ffdcH
	DW	010H
	DW	0ffddH
	DW	010H
	DW	0ffdeH
	DW	010H
	DW	0ffdfH
	DW	010H
	DW	0ffe0H
	DW	010H
	DW	0ffe1H
	DW	010H
	DW	00H
	DW	00H
	DW	00H
	DW	00H
	DW	00H
	DW	00H
	DW	00H
	DW	00H
	DW	00H
	DW	00H
	DW	00H
	DW	00H
	DW	07f8H
	DW	0bH
	DW	0ffe2H
	DW	010H
	DW	0ffe3H
	DW	010H
	DW	0ffe4H
	DW	010H
	DW	0ffe5H
	DW	010H
	DW	0ffe6H
	DW	010H
	DW	0ffe7H
	DW	010H
	DW	0ffe8H
	DW	010H
	DW	0ffe9H
	DW	010H
	DW	0ffeaH
	DW	010H
	DW	00H
	DW	00H
	DW	00H
	DW	00H
	DW	00H
	DW	00H
	DW	00H
	DW	00H
	DW	00H
	DW	00H
	DW	00H
	DW	00H
	DW	0ffebH
	DW	010H
	DW	0ffecH
	DW	010H
	DW	0ffedH
	DW	010H
	DW	0ffeeH
	DW	010H
	DW	0ffefH
	DW	010H
	DW	0fff0H
	DW	010H
	DW	0fff1H
	DW	010H
	DW	0fff2H
	DW	010H
	DW	0fff3H
	DW	010H
	DW	0fff4H
	DW	010H
	DW	00H
	DW	00H
	DW	00H
	DW	00H
	DW	00H
	DW	00H
	DW	00H
	DW	00H
	DW	00H
	DW	00H
	DW	07f9H
	DW	0bH
	DW	0fff5H
	DW	010H
	DW	0fff6H
	DW	010H
	DW	0fff7H
	DW	010H
	DW	0fff8H
	DW	010H
	DW	0fff9H
	DW	010H
	DW	0fffaH
	DW	010H
	DW	0fffbH
	DW	010H
	DW	0fffcH
	DW	010H
	DW	0fffdH
	DW	010H
	DW	0fffeH
	DW	010H
	DW	00H
	DW	00H
	DW	00H
	DW	00H
	DW	00H
	DW	00H
	DW	00H
	DW	00H
	DW	00H
	DW	00H
?UVAC_HT@?1??stbi_write_jpg_core@@9@9 DW 00H		; `stbi_write_jpg_core'::`2'::UVAC_HT
	DW	02H
	DW	01H
	DW	02H
	DW	04H
	DW	03H
	DW	0aH
	DW	04H
	DW	018H
	DW	05H
	DW	019H
	DW	05H
	DW	038H
	DW	06H
	DW	078H
	DW	07H
	DW	01f4H
	DW	09H
	DW	03f6H
	DW	0aH
	DW	0ff4H
	DW	0cH
	DW	00H
	DW	00H
	DW	00H
	DW	00H
	DW	00H
	DW	00H
	DW	00H
	DW	00H
	DW	00H
	DW	00H
	DW	00H
	DW	00H
	DW	0bH
	DW	04H
	DW	039H
	DW	06H
	DW	0f6H
	DW	08H
	DW	01f5H
	DW	09H
	DW	07f6H
	DW	0bH
	DW	0ff5H
	DW	0cH
	DW	0ff88H
	DW	010H
	DW	0ff89H
	DW	010H
	DW	0ff8aH
	DW	010H
	DW	0ff8bH
	DW	010H
	DW	00H
	DW	00H
	DW	00H
	DW	00H
	DW	00H
	DW	00H
	DW	00H
	DW	00H
	DW	00H
	DW	00H
	DW	00H
	DW	00H
	DW	01aH
	DW	05H
	DW	0f7H
	DW	08H
	DW	03f7H
	DW	0aH
	DW	0ff6H
	DW	0cH
	DW	07fc2H
	DW	0fH
	DW	0ff8cH
	DW	010H
	DW	0ff8dH
	DW	010H
	DW	0ff8eH
	DW	010H
	DW	0ff8fH
	DW	010H
	DW	0ff90H
	DW	010H
	DW	00H
	DW	00H
	DW	00H
	DW	00H
	DW	00H
	DW	00H
	DW	00H
	DW	00H
	DW	00H
	DW	00H
	DW	00H
	DW	00H
	DW	01bH
	DW	05H
	DW	0f8H
	DW	08H
	DW	03f8H
	DW	0aH
	DW	0ff7H
	DW	0cH
	DW	0ff91H
	DW	010H
	DW	0ff92H
	DW	010H
	DW	0ff93H
	DW	010H
	DW	0ff94H
	DW	010H
	DW	0ff95H
	DW	010H
	DW	0ff96H
	DW	010H
	DW	00H
	DW	00H
	DW	00H
	DW	00H
	DW	00H
	DW	00H
	DW	00H
	DW	00H
	DW	00H
	DW	00H
	DW	00H
	DW	00H
	DW	03aH
	DW	06H
	DW	01f6H
	DW	09H
	DW	0ff97H
	DW	010H
	DW	0ff98H
	DW	010H
	DW	0ff99H
	DW	010H
	DW	0ff9aH
	DW	010H
	DW	0ff9bH
	DW	010H
	DW	0ff9cH
	DW	010H
	DW	0ff9dH
	DW	010H
	DW	0ff9eH
	DW	010H
	DW	00H
	DW	00H
	DW	00H
	DW	00H
	DW	00H
	DW	00H
	DW	00H
	DW	00H
	DW	00H
	DW	00H
	DW	00H
	DW	00H
	DW	03bH
	DW	06H
	DW	03f9H
	DW	0aH
	DW	0ff9fH
	DW	010H
	DW	0ffa0H
	DW	010H
	DW	0ffa1H
	DW	010H
	DW	0ffa2H
	DW	010H
	DW	0ffa3H
	DW	010H
	DW	0ffa4H
	DW	010H
	DW	0ffa5H
	DW	010H
	DW	0ffa6H
	DW	010H
	DW	00H
	DW	00H
	DW	00H
	DW	00H
	DW	00H
	DW	00H
	DW	00H
	DW	00H
	DW	00H
	DW	00H
	DW	00H
	DW	00H
	DW	079H
	DW	07H
	DW	07f7H
	DW	0bH
	DW	0ffa7H
	DW	010H
	DW	0ffa8H
	DW	010H
	DW	0ffa9H
	DW	010H
	DW	0ffaaH
	DW	010H
	DW	0ffabH
	DW	010H
	DW	0ffacH
	DW	010H
	DW	0ffadH
	DW	010H
	DW	0ffaeH
	DW	010H
	DW	00H
	DW	00H
	DW	00H
	DW	00H
	DW	00H
	DW	00H
	DW	00H
	DW	00H
	DW	00H
	DW	00H
	DW	00H
	DW	00H
	DW	07aH
	DW	07H
	DW	07f8H
	DW	0bH
	DW	0ffafH
	DW	010H
	DW	0ffb0H
	DW	010H
	DW	0ffb1H
	DW	010H
	DW	0ffb2H
	DW	010H
	DW	0ffb3H
	DW	010H
	DW	0ffb4H
	DW	010H
	DW	0ffb5H
	DW	010H
	DW	0ffb6H
	DW	010H
	DW	00H
	DW	00H
	DW	00H
	DW	00H
	DW	00H
	DW	00H
	DW	00H
	DW	00H
	DW	00H
	DW	00H
	DW	00H
	DW	00H
	DW	0f9H
	DW	08H
	DW	0ffb7H
	DW	010H
	DW	0ffb8H
	DW	010H
	DW	0ffb9H
	DW	010H
	DW	0ffbaH
	DW	010H
	DW	0ffbbH
	DW	010H
	DW	0ffbcH
	DW	010H
	DW	0ffbdH
	DW	010H
	DW	0ffbeH
	DW	010H
	DW	0ffbfH
	DW	010H
	DW	00H
	DW	00H
	DW	00H
	DW	00H
	DW	00H
	DW	00H
	DW	00H
	DW	00H
	DW	00H
	DW	00H
	DW	00H
	DW	00H
	DW	01f7H
	DW	09H
	DW	0ffc0H
	DW	010H
	DW	0ffc1H
	DW	010H
	DW	0ffc2H
	DW	010H
	DW	0ffc3H
	DW	010H
	DW	0ffc4H
	DW	010H
	DW	0ffc5H
	DW	010H
	DW	0ffc6H
	DW	010H
	DW	0ffc7H
	DW	010H
	DW	0ffc8H
	DW	010H
	DW	00H
	DW	00H
	DW	00H
	DW	00H
	DW	00H
	DW	00H
	DW	00H
	DW	00H
	DW	00H
	DW	00H
	DW	00H
	DW	00H
	DW	01f8H
	DW	09H
	DW	0ffc9H
	DW	010H
	DW	0ffcaH
	DW	010H
	DW	0ffcbH
	DW	010H
	DW	0ffccH
	DW	010H
	DW	0ffcdH
	DW	010H
	DW	0ffceH
	DW	010H
	DW	0ffcfH
	DW	010H
	DW	0ffd0H
	DW	010H
	DW	0ffd1H
	DW	010H
	DW	00H
	DW	00H
	DW	00H
	DW	00H
	DW	00H
	DW	00H
	DW	00H
	DW	00H
	DW	00H
	DW	00H
	DW	00H
	DW	00H
	DW	01f9H
	DW	09H
	DW	0ffd2H
	DW	010H
	DW	0ffd3H
	DW	010H
	DW	0ffd4H
	DW	010H
	DW	0ffd5H
	DW	010H
	DW	0ffd6H
	DW	010H
	DW	0ffd7H
	DW	010H
	DW	0ffd8H
	DW	010H
	DW	0ffd9H
	DW	010H
	DW	0ffdaH
	DW	010H
	DW	00H
	DW	00H
	DW	00H
	DW	00H
	DW	00H
	DW	00H
	DW	00H
	DW	00H
	DW	00H
	DW	00H
	DW	00H
	DW	00H
	DW	01faH
	DW	09H
	DW	0ffdbH
	DW	010H
	DW	0ffdcH
	DW	010H
	DW	0ffddH
	DW	010H
	DW	0ffdeH
	DW	010H
	DW	0ffdfH
	DW	010H
	DW	0ffe0H
	DW	010H
	DW	0ffe1H
	DW	010H
	DW	0ffe2H
	DW	010H
	DW	0ffe3H
	DW	010H
	DW	00H
	DW	00H
	DW	00H
	DW	00H
	DW	00H
	DW	00H
	DW	00H
	DW	00H
	DW	00H
	DW	00H
	DW	00H
	DW	00H
	DW	07f9H
	DW	0bH
	DW	0ffe4H
	DW	010H
	DW	0ffe5H
	DW	010H
	DW	0ffe6H
	DW	010H
	DW	0ffe7H
	DW	010H
	DW	0ffe8H
	DW	010H
	DW	0ffe9H
	DW	010H
	DW	0ffeaH
	DW	010H
	DW	0ffebH
	DW	010H
	DW	0ffecH
	DW	010H
	DW	00H
	DW	00H
	DW	00H
	DW	00H
	DW	00H
	DW	00H
	DW	00H
	DW	00H
	DW	00H
	DW	00H
	DW	00H
	DW	00H
	DW	03fe0H
	DW	0eH
	DW	0ffedH
	DW	010H
	DW	0ffeeH
	DW	010H
	DW	0ffefH
	DW	010H
	DW	0fff0H
	DW	010H
	DW	0fff1H
	DW	010H
	DW	0fff2H
	DW	010H
	DW	0fff3H
	DW	010H
	DW	0fff4H
	DW	010H
	DW	0fff5H
	DW	010H
	DW	00H
	DW	00H
	DW	00H
	DW	00H
	DW	00H
	DW	00H
	DW	00H
	DW	00H
	DW	00H
	DW	00H
	DW	03faH
	DW	0aH
	DW	07fc3H
	DW	0fH
	DW	0fff6H
	DW	010H
	DW	0fff7H
	DW	010H
	DW	0fff8H
	DW	010H
	DW	0fff9H
	DW	010H
	DW	0fffaH
	DW	010H
	DW	0fffbH
	DW	010H
	DW	0fffcH
	DW	010H
	DW	0fffdH
	DW	010H
	DW	0fffeH
	DW	010H
	DW	00H
	DW	00H
	DW	00H
	DW	00H
	DW	00H
	DW	00H
	DW	00H
	DW	00H
	DW	00H
	DW	00H
?YQT@?1??stbi_write_jpg_core@@9@9 DD 010H		; `stbi_write_jpg_core'::`2'::YQT
	DD	0bH
	DD	0aH
	DD	010H
	DD	018H
	DD	028H
	DD	033H
	DD	03dH
	DD	0cH
	DD	0cH
	DD	0eH
	DD	013H
	DD	01aH
	DD	03aH
	DD	03cH
	DD	037H
	DD	0eH
	DD	0dH
	DD	010H
	DD	018H
	DD	028H
	DD	039H
	DD	045H
	DD	038H
	DD	0eH
	DD	011H
	DD	016H
	DD	01dH
	DD	033H
	DD	057H
	DD	050H
	DD	03eH
	DD	012H
	DD	016H
	DD	025H
	DD	038H
	DD	044H
	DD	06dH
	DD	067H
	DD	04dH
	DD	018H
	DD	023H
	DD	037H
	DD	040H
	DD	051H
	DD	068H
	DD	071H
	DD	05cH
	DD	031H
	DD	040H
	DD	04eH
	DD	057H
	DD	067H
	DD	079H
	DD	078H
	DD	065H
	DD	048H
	DD	05cH
	DD	05fH
	DD	062H
	DD	070H
	DD	064H
	DD	067H
	DD	063H
?UVQT@?1??stbi_write_jpg_core@@9@9 DD 011H		; `stbi_write_jpg_core'::`2'::UVQT
	DD	012H
	DD	018H
	DD	02fH
	DD	063H
	DD	063H
	DD	063H
	DD	063H
	DD	012H
	DD	015H
	DD	01aH
	DD	042H
	DD	063H
	DD	063H
	DD	063H
	DD	063H
	DD	018H
	DD	01aH
	DD	038H
	DD	063H
	DD	063H
	DD	063H
	DD	063H
	DD	063H
	DD	02fH
	DD	042H
	DD	063H
	DD	063H
	DD	063H
	DD	063H
	DD	063H
	DD	063H
	DD	063H
	DD	063H
	DD	063H
	DD	063H
	DD	063H
	DD	063H
	DD	063H
	DD	063H
	DD	063H
	DD	063H
	DD	063H
	DD	063H
	DD	063H
	DD	063H
	DD	063H
	DD	063H
	DD	063H
	DD	063H
	DD	063H
	DD	063H
	DD	063H
	DD	063H
	DD	063H
	DD	063H
	DD	063H
	DD	063H
	DD	063H
	DD	063H
	DD	063H
	DD	063H
	DD	063H
	DD	063H
?head0@?9??stbi_write_jpg_core@@9@9 DB 0ffH		; `stbi_write_jpg_core'::`10'::head0
	DB	0d8H
	DB	0ffH
	DB	0e0H
	DB	00H
	DB	010H
	DB	04aH
	DB	046H
	DB	049H
	DB	046H
	DB	00H
	DB	01H
	DB	01H
	DB	00H
	DB	00H
	DB	01H
	DB	00H
	DB	01H
	DB	00H
	DB	00H
	DB	0ffH
	DB	0dbH
	DB	00H
	DB	084H
	DB	00H
	ORG $+7
?head2@?9??stbi_write_jpg_core@@9@9 DB 0ffH		; `stbi_write_jpg_core'::`10'::head2
	DB	0daH
	DB	00H
	DB	0cH
	DB	03H
	DB	01H
	DB	00H
	DB	02H
	DB	011H
	DB	03H
	DB	011H
	DB	00H
	DB	03fH
	DB	00H
CONST	ENDS
PUBLIC	__local_stdio_printf_options
PUBLIC	_vfprintf_l
PUBLIC	printf
PUBLIC	_vsnprintf_l
PUBLIC	_vsprintf_l
PUBLIC	sprintf
PUBLIC	stbsp_vsprintf
PUBLIC	stbsp_vsnprintf
PUBLIC	stbsp_sprintf
PUBLIC	stbsp_snprintf
PUBLIC	stbsp_vsprintfcb
PUBLIC	stbsp_set_separators
PUBLIC	stbi_load_from_memory
PUBLIC	stbi_load_from_callbacks
PUBLIC	stbi_load
PUBLIC	stbi_load_from_file
PUBLIC	stbi_load_gif_from_memory
PUBLIC	stbi_load_16_from_memory
PUBLIC	stbi_load_16_from_callbacks
PUBLIC	stbi_load_16
PUBLIC	stbi_load_from_file_16
PUBLIC	stbi_loadf_from_memory
PUBLIC	stbi_loadf_from_callbacks
PUBLIC	stbi_loadf
PUBLIC	stbi_loadf_from_file
PUBLIC	stbi_hdr_to_ldr_gamma
PUBLIC	stbi_hdr_to_ldr_scale
PUBLIC	stbi_ldr_to_hdr_gamma
PUBLIC	stbi_ldr_to_hdr_scale
PUBLIC	stbi_is_hdr_from_callbacks
PUBLIC	stbi_is_hdr_from_memory
PUBLIC	stbi_is_hdr
PUBLIC	stbi_is_hdr_from_file
PUBLIC	stbi_failure_reason
PUBLIC	stbi_image_free
PUBLIC	stbi_info_from_memory
PUBLIC	stbi_info_from_callbacks
PUBLIC	stbi_is_16_bit_from_memory
PUBLIC	stbi_is_16_bit_from_callbacks
PUBLIC	stbi_info
PUBLIC	stbi_info_from_file
PUBLIC	stbi_is_16_bit
PUBLIC	stbi_is_16_bit_from_file
PUBLIC	stbi_set_unpremultiply_on_load
PUBLIC	stbi_convert_iphone_png_to_rgb
PUBLIC	stbi_set_flip_vertically_on_load
PUBLIC	stbi_convert_iphone_png_to_rgb_thread
PUBLIC	stbi_set_flip_vertically_on_load_thread
PUBLIC	stbi_zlib_decode_malloc_guesssize
PUBLIC	stbi_zlib_decode_malloc_guesssize_headerflag
PUBLIC	stbi_zlib_decode_malloc
PUBLIC	stbi_zlib_decode_buffer
PUBLIC	stbi_zlib_decode_noheader_malloc
PUBLIC	stbi_zlib_decode_noheader_buffer
PUBLIC	stbi__unpremultiply_on_load_thread
PUBLIC	stbir_resize_uint8
PUBLIC	stbir_resize_float
PUBLIC	stbir_resize_uint8_srgb
PUBLIC	stbir_resize_uint8_srgb_edgemode
PUBLIC	stbir_resize_uint8_generic
PUBLIC	stbir_resize_uint16_generic
PUBLIC	stbir_resize_float_generic
PUBLIC	stbir_resize
PUBLIC	stbir_resize_subpixel
PUBLIC	stbir_resize_region
PUBLIC	stbi_write_png
PUBLIC	stbi_write_bmp
PUBLIC	stbi_write_tga
PUBLIC	stbi_write_hdr
PUBLIC	stbi_write_jpg
PUBLIC	stbi_write_png_to_func
PUBLIC	stbi_write_bmp_to_func
PUBLIC	stbi_write_tga_to_func
PUBLIC	stbi_write_hdr_to_func
PUBLIC	stbi_write_jpg_to_func
PUBLIC	stbi_flip_vertically_on_write
PUBLIC	stbi_zlib_compress
PUBLIC	stbi_write_png_to_mem
PUBLIC	stbtt_BakeFontBitmap
PUBLIC	stbtt_GetBakedQuad
PUBLIC	stbtt_GetScaledFontVMetrics
PUBLIC	stbtt_PackBegin
PUBLIC	stbtt_PackEnd
PUBLIC	stbtt_PackFontRange
PUBLIC	stbtt_PackFontRanges
PUBLIC	stbtt_PackSetOversampling
PUBLIC	stbtt_PackSetSkipMissingCodepoints
PUBLIC	stbtt_GetPackedQuad
PUBLIC	stbtt_PackFontRangesGatherRects
PUBLIC	stbtt_PackFontRangesPackRects
PUBLIC	stbtt_PackFontRangesRenderIntoRects
PUBLIC	stbtt_GetNumberOfFonts
PUBLIC	stbtt_GetFontOffsetForIndex
PUBLIC	stbtt_InitFont
PUBLIC	stbtt_FindGlyphIndex
PUBLIC	stbtt_ScaleForPixelHeight
PUBLIC	stbtt_ScaleForMappingEmToPixels
PUBLIC	stbtt_GetFontVMetrics
PUBLIC	stbtt_GetFontVMetricsOS2
PUBLIC	stbtt_GetFontBoundingBox
PUBLIC	stbtt_GetCodepointHMetrics
PUBLIC	stbtt_GetCodepointKernAdvance
PUBLIC	stbtt_GetCodepointBox
PUBLIC	stbtt_GetGlyphHMetrics
PUBLIC	stbtt_GetGlyphKernAdvance
PUBLIC	stbtt_GetGlyphBox
PUBLIC	stbtt_GetKerningTableLength
PUBLIC	stbtt_GetKerningTable
PUBLIC	stbtt_IsGlyphEmpty
PUBLIC	stbtt_GetCodepointShape
PUBLIC	stbtt_GetGlyphShape
PUBLIC	stbtt_FreeShape
PUBLIC	stbtt_FindSVGDoc
PUBLIC	stbtt_GetCodepointSVG
PUBLIC	stbtt_GetGlyphSVG
PUBLIC	stbtt_FreeBitmap
PUBLIC	stbtt_GetCodepointBitmap
PUBLIC	stbtt_GetCodepointBitmapSubpixel
PUBLIC	stbtt_MakeCodepointBitmap
PUBLIC	stbtt_MakeCodepointBitmapSubpixel
PUBLIC	stbtt_MakeCodepointBitmapSubpixelPrefilter
PUBLIC	stbtt_GetCodepointBitmapBox
PUBLIC	stbtt_GetCodepointBitmapBoxSubpixel
PUBLIC	stbtt_GetGlyphBitmap
PUBLIC	stbtt_GetGlyphBitmapSubpixel
PUBLIC	stbtt_MakeGlyphBitmap
PUBLIC	stbtt_MakeGlyphBitmapSubpixel
PUBLIC	stbtt_MakeGlyphBitmapSubpixelPrefilter
PUBLIC	stbtt_GetGlyphBitmapBox
PUBLIC	stbtt_GetGlyphBitmapBoxSubpixel
PUBLIC	stbtt_Rasterize
PUBLIC	stbtt_FreeSDF
PUBLIC	stbtt_GetGlyphSDF
PUBLIC	stbtt_GetCodepointSDF
PUBLIC	stbtt_FindMatchingFont
PUBLIC	stbtt_CompareUTF8toUTF16_bigendian
PUBLIC	stbtt_GetFontNameString
PUBLIC	rxborrow_resource
PUBLIC	rxreturn_resource
PUBLIC	rxreturn
PUBLIC	rxborrow_texture
PUBLIC	rxcreate_texture
PUBLIC	rxload_texture
PUBLIC	rxload_texture_file
PUBLIC	rxload_font
PUBLIC	rxdraw_texture_ex
PUBLIC	rxdraw_texture
PUBLIC	rxdraw_text
PUBLIC	rxwindow
PUBLIC	rxtick
PUBLIC	rxresize_indexbuffer
PUBLIC	rxresize_vertexbuffer
PUBLIC	rxwindow_callback_win32
PUBLIC	rxinit
PUBLIC	main
PUBLIC	__real@00000000
PUBLIC	__real@0000000000000000
PUBLIC	__real@0a4fb11f
PUBLIC	__real@17800000
PUBLIC	__real@3b4d2e1c
PUBLIC	__real@3c23d70a
PUBLIC	__real@3d25aee6
PUBLIC	__real@3d6147ae
PUBLIC	__real@3da685db
PUBLIC	__real@3de978d5
PUBLIC	__real@3e800000
PUBLIC	__real@3e991687
PUBLIC	__real@3ea99ae9
PUBLIC	__real@3eb33333
PUBLIC	__real@3ec3ef15
PUBLIC	__real@3ed65e89
PUBLIC	__real@3f000000
PUBLIC	__real@3f0a8bd4
PUBLIC	__real@3f1645a2
PUBLIC	__real@3f3504f3
PUBLIC	__real@3f666666
PUBLIC	__real@3f7d70a4
PUBLIC	__real@3f800000
PUBLIC	__real@3f870a3d
PUBLIC	__real@3f8ccccd
PUBLIC	__real@3fa73d75
PUBLIC	__real@3fc00000
PUBLIC	__real@3fd5555560000000
PUBLIC	__real@3fdaaaaaa0000000
PUBLIC	__real@3fddb3d7
PUBLIC	__real@3fe0000000000000
PUBLIC	__real@3feccccccccccccd
PUBLIC	__real@3ff0000000000000
PUBLIC	__real@3ff028f5c0000000
PUBLIC	__real@3ff921fafc8b007a
PUBLIC	__real@40000000
PUBLIC	__real@4000000000000000
PUBLIC	__real@4003333340000000
PUBLIC	__real@40200000
PUBLIC	__real@40400000
PUBLIC	__real@40800000
PUBLIC	__real@408f400000000000
PUBLIC	__real@4090000000000000
PUBLIC	__real@40c00000
PUBLIC	__real@40e00000
PUBLIC	__real@41000000
PUBLIC	__real@41100000
PUBLIC	__real@414eb852
PUBLIC	__real@41800000
PUBLIC	__real@41900000
PUBLIC	__real@41a80000
PUBLIC	__real@41d80000
PUBLIC	__real@42000000
PUBLIC	__real@42100000
PUBLIC	__real@42800000
PUBLIC	__real@43000000
PUBLIC	__real@437f0000
PUBLIC	__real@43800000
PUBLIC	__real@46800000
PUBLIC	__real@477fff00
PUBLIC	__real@47800000
PUBLIC	__real@497423f0
PUBLIC	__real@be2cca2e
PUBLIC	__real@bf000000
PUBLIC	__real@bf800000
PUBLIC	__real@c0000000
PUBLIC	__real@c1400000
PUBLIC	__real@c1d80000
PUBLIC	__real@c2700000
PUBLIC	__xmm@00000200000002000000020000000200
PUBLIC	__xmm@00080008000800080008000800080008
PUBLIC	__xmm@00ff00ff00ff00ff00ff00ff00ff00ff
PUBLIC	__xmm@01010000010100000101000001010000
PUBLIC	__xmm@08a914e808a914e808a914e808a914e8
PUBLIC	__xmm@11c8e09e11c8e09e11c8e09e11c8e09e
PUBLIC	__xmm@11c8f9c311c8f9c311c8f9c311c8f9c3
PUBLIC	__xmm@12d0046b12d0046b12d0046b12d0046b
PUBLIC	__xmm@166f166f166f166f166f166f166f166f
PUBLIC	__xmm@1c5a1c5a1c5a1c5a1c5a1c5a1c5a1c5a
PUBLIC	__xmm@80000000000000008000000000000000
PUBLIC	__xmm@80000000800000008000000080000000
PUBLIC	__xmm@80808080808080808080808080808080
PUBLIC	__xmm@e09ee565e09ee565e09ee565e09ee565
PUBLIC	__xmm@e9cf12d0e9cf12d0e9cf12d0e9cf12d0
PUBLIC	__xmm@eb1a08a9eb1a08a9eb1a08a9eb1a08a9
PUBLIC	__xmm@f493f493f493f493f493f493f493f493
PUBLIC	__xmm@f9c31a9df9c31a9df9c31a9df9c31a9d
PUBLIC	__xmm@fa7efa7efa7efa7efa7efa7efa7efa7e
EXTRN	__report_rangecheckfailure:PROC
EXTRN	free:PROC
EXTRN	malloc:PROC
EXTRN	realloc:PROC
EXTRN	abs:PROC
EXTRN	_lrotl:PROC
EXTRN	strtol:PROC
EXTRN	__acrt_iob_func:PROC
EXTRN	fopen_s:PROC
EXTRN	fclose:PROC
EXTRN	feof:PROC
EXTRN	ferror:PROC
EXTRN	fgetc:PROC
EXTRN	fread:PROC
EXTRN	fseek:PROC
EXTRN	ftell:PROC
EXTRN	fwrite:PROC
EXTRN	ungetc:PROC
EXTRN	__stdio_common_vfprintf:PROC
EXTRN	__stdio_common_vsprintf:PROC
EXTRN	memcmp:PROC
EXTRN	memcpy:PROC
EXTRN	memmove:PROC
EXTRN	memset:PROC
EXTRN	strcmp:PROC
EXTRN	strlen:PROC
EXTRN	strncmp:PROC
EXTRN	acos:PROC
EXTRN	cos:PROC
EXTRN	fabs:PROC
EXTRN	fmod:PROC
EXTRN	pow:PROC
EXTRN	sqrt:PROC
EXTRN	ceil:PROC
EXTRN	floor:PROC
EXTRN	frexp:PROC
EXTRN	ldexp:PROC
EXTRN	__imp_CreateFileA:PROC
EXTRN	__imp_GetFileSize:PROC
EXTRN	__imp_ReadFile:PROC
EXTRN	__imp_OutputDebugStringA:PROC
EXTRN	__imp_CloseHandle:PROC
EXTRN	__imp_WaitForSingleObjectEx:PROC
EXTRN	__imp_GetModuleHandleW:PROC
EXTRN	__imp_TranslateMessage:PROC
EXTRN	__imp_DispatchMessageW:PROC
EXTRN	__imp_PeekMessageA:PROC
EXTRN	__imp_DefWindowProcW:PROC
EXTRN	__imp_RegisterClassW:PROC
EXTRN	__imp_CreateWindowExW:PROC
EXTRN	__imp_ShowWindow:PROC
EXTRN	__imp_GetClientRect:PROC
EXTRN	_wassert:PROC
EXTRN	D3D11CreateDevice:PROC
EXTRN	__GSHandlerCheck:PROC
EXTRN	__chkstk:PROC
EXTRN	__security_check_cookie:PROC
EXTRN	IID_IDXGIDevice:BYTE
EXTRN	IID_IDXGIFactory2:BYTE
EXTRN	IID_ID3D11Texture2D:BYTE
EXTRN	IID_ID3D11InfoQueue:BYTE
EXTRN	__ImageBase:BYTE
EXTRN	__security_cookie:QWORD
EXTRN	_fltused:DWORD
EXTRN	_tls_index:DWORD
_DATA	SEGMENT
COMM	?_OptionsStorage@?1??__local_stdio_printf_options@@9@9:QWORD							; `__local_stdio_printf_options'::`2'::_OptionsStorage
_DATA	ENDS
_TLS	SEGMENT
cccolorstate DB	024H DUP (?)
_TLS	ENDS
_BSS	SEGMENT
ccdebugroot DB	0b0H DUP (?)
ccdebugthis DQ	01H DUP (?)
ccdebugnone DD	01H DUP (?)
_BSS	ENDS
_TLS	SEGMENT
?buf@?1??ccformatv@@9@9 DB 0ffH DUP (?)			; `ccformatv'::`2'::buf
_TLS	ENDS
_BSS	SEGMENT
?dummy@?1??ccdebug_@@9@9 DB 0b0H DUP (?)		; `ccdebug_'::`2'::dummy
_BSS	ENDS
_TLS	SEGMENT
	ALIGN	4

?buf@?1??cctrace_@@9@9 DB 0fffH DUP (?)			; `cctrace_'::`2'::buf
	ALIGN	8

stbi__g_failure_reason DQ 01H DUP (?)
_TLS	ENDS
_BSS	SEGMENT
stbi__vertically_flip_on_load_global DD 01H DUP (?)
_BSS	ENDS
_TLS	SEGMENT
stbi__vertically_flip_on_load_local DD 01H DUP (?)
stbi__vertically_flip_on_load_set DD 01H DUP (?)
_TLS	ENDS
_BSS	SEGMENT
stbi__unpremultiply_on_load_global DD 01H DUP (?)
stbi__de_iphone_flag_global DD 01H DUP (?)
_BSS	ENDS
_TLS	SEGMENT
stbi__unpremultiply_on_load_local DD 01H DUP (?)
stbi__unpremultiply_on_load_set DD 01H DUP (?)
stbi__de_iphone_flag_local DD 01H DUP (?)
stbi__de_iphone_flag_set DD 01H DUP (?)
_TLS	ENDS
_BSS	SEGMENT
$SG76699 DB	01H DUP (?)
	ALIGN	4

stbi__flip_vertically_on_write DD 01H DUP (?)
rx	DB	04510H DUP (?)
_BSS	ENDS
;	COMDAT pdata
pdata	SEGMENT
$pdata$_vfprintf_l DD imagerel $LN3
	DD	imagerel $LN3+67
	DD	imagerel $unwind$_vfprintf_l
pdata	ENDS
;	COMDAT pdata
pdata	SEGMENT
$pdata$printf DD imagerel $LN3
	DD	imagerel $LN3+87
	DD	imagerel $unwind$printf
pdata	ENDS
;	COMDAT pdata
pdata	SEGMENT
$pdata$_vsnprintf_l DD imagerel $LN5
	DD	imagerel $LN5+117
	DD	imagerel $unwind$_vsnprintf_l
pdata	ENDS
;	COMDAT pdata
pdata	SEGMENT
$pdata$_vsprintf_l DD imagerel $LN3
	DD	imagerel $LN3+66
	DD	imagerel $unwind$_vsprintf_l
pdata	ENDS
;	COMDAT pdata
pdata	SEGMENT
$pdata$sprintf DD imagerel $LN3
	DD	imagerel $LN3+79
	DD	imagerel $unwind$sprintf
pdata	ENDS
pdata	SEGMENT
$pdata$stbsp_vsprintf DD imagerel $LN3
	DD	imagerel $LN3+53
	DD	imagerel $unwind$stbsp_vsprintf
$pdata$stbsp_vsnprintf DD imagerel $LN6
	DD	imagerel $LN6+303
	DD	imagerel $unwind$stbsp_vsnprintf
$pdata$stbsp_sprintf DD imagerel $LN3
	DD	imagerel $LN3+85
	DD	imagerel $unwind$stbsp_sprintf
$pdata$stbsp_snprintf DD imagerel $LN3
	DD	imagerel $LN3+79
	DD	imagerel $unwind$stbsp_snprintf
$pdata$stbsp_vsprintfcb DD imagerel $LN408
	DD	imagerel $LN408+13380
	DD	imagerel $unwind$stbsp_vsprintfcb
$pdata$stbsp__real_to_str DD imagerel stbsp__real_to_str
	DD	imagerel stbsp__real_to_str+1613
	DD	imagerel $unwind$stbsp__real_to_str
$pdata$stbsp__real_to_parts DD imagerel stbsp__real_to_parts
	DD	imagerel stbsp__real_to_parts+154
	DD	imagerel $unwind$stbsp__real_to_parts
$pdata$stbsp__strlen_limited DD imagerel stbsp__strlen_limited
	DD	imagerel stbsp__strlen_limited+239
	DD	imagerel $unwind$stbsp__strlen_limited
$pdata$stbsp__clamp_callback DD imagerel stbsp__clamp_callback
	DD	imagerel stbsp__clamp_callback+300
	DD	imagerel $unwind$stbsp__clamp_callback
$pdata$stbsp__count_clamp_callback DD imagerel stbsp__count_clamp_callback
	DD	imagerel stbsp__count_clamp_callback+59
	DD	imagerel $unwind$stbsp__count_clamp_callback
$pdata$stbsp__raise_to_power10 DD imagerel stbsp__raise_to_power10
	DD	imagerel stbsp__raise_to_power10+3868
	DD	imagerel $unwind$stbsp__raise_to_power10
$pdata$ccuserallocator_ DD imagerel ccuserallocator_
	DD	imagerel ccuserallocator_+885
	DD	imagerel $unwind$ccuserallocator_
$pdata$cccaller DD imagerel cccaller
	DD	imagerel cccaller+91
	DD	imagerel $unwind$cccaller
$pdata$ccformatvex DD imagerel ccformatvex
	DD	imagerel ccformatvex+52
	DD	imagerel $unwind$ccformatvex
$pdata$ccformatv DD imagerel ccformatv
	DD	imagerel ccformatv+94
	DD	imagerel $unwind$ccformatv
$pdata$ccformatex DD imagerel ccformatex
	DD	imagerel ccformatex+79
	DD	imagerel $unwind$ccformatex
$pdata$ccformat DD imagerel ccformat
	DD	imagerel ccformat+73
	DD	imagerel $unwind$ccformat
$pdata$ccopenfile DD imagerel ccopenfile
	DD	imagerel ccopenfile+416
	DD	imagerel $unwind$ccopenfile
$pdata$ccrealfile DD imagerel ccrealfile
	DD	imagerel ccrealfile+41
	DD	imagerel $unwind$ccrealfile
$pdata$ccclosefile DD imagerel ccclosefile
	DD	imagerel ccclosefile+25
	DD	imagerel $unwind$ccclosefile
$pdata$ccpullfile DD imagerel ccpullfile
	DD	imagerel ccpullfile+422
	DD	imagerel $unwind$ccpullfile
$pdata$ccfilesize DD imagerel ccfilesize
	DD	imagerel ccfilesize+27
	DD	imagerel $unwind$ccfilesize
$pdata$ccdebug_ DD imagerel ccdebug_
	DD	imagerel ccdebug_+155
	DD	imagerel $unwind$ccdebug_
$pdata$ccfilename DD imagerel ccfilename
	DD	imagerel ccfilename+103
	DD	imagerel $unwind$ccfilename
$pdata$cctrace_ DD imagerel cctrace_
	DD	imagerel cctrace_+324
	DD	imagerel $unwind$cctrace_
$pdata$ccsentry_block_check DD imagerel ccsentry_block_check
	DD	imagerel ccsentry_block_check+1781
	DD	imagerel $unwind$ccsentry_block_check
$pdata$ccout DD	imagerel ccout
	DD	imagerel ccout+35
	DD	imagerel $unwind$ccout
$pdata$stbi_load_from_memory DD imagerel $LN3
	DD	imagerel $LN3+139
	DD	imagerel $unwind$stbi_load_from_memory
$pdata$stbi_load_from_callbacks DD imagerel $LN3
	DD	imagerel $LN3+140
	DD	imagerel $unwind$stbi_load_from_callbacks
$pdata$stbi_load DD imagerel $LN6
	DD	imagerel $LN6+158
	DD	imagerel $unwind$stbi_load
$pdata$stbi_load_from_file DD imagerel $LN4
	DD	imagerel $LN4+195
	DD	imagerel $unwind$stbi_load_from_file
$pdata$stbi_load_gif_from_memory DD imagerel $LN6
	DD	imagerel $LN6+315
	DD	imagerel $unwind$stbi_load_gif_from_memory
$pdata$stbi_load_16_from_memory DD imagerel $LN3
	DD	imagerel $LN3+139
	DD	imagerel $unwind$stbi_load_16_from_memory
$pdata$stbi_load_16_from_callbacks DD imagerel $LN3
	DD	imagerel $LN3+140
	DD	imagerel $unwind$stbi_load_16_from_callbacks
$pdata$stbi_load_16 DD imagerel $LN6
	DD	imagerel $LN6+158
	DD	imagerel $unwind$stbi_load_16
$pdata$stbi_load_from_file_16 DD imagerel $LN4
	DD	imagerel $LN4+195
	DD	imagerel $unwind$stbi_load_from_file_16
$pdata$stbi_loadf_from_memory DD imagerel $LN3
	DD	imagerel $LN3+139
	DD	imagerel $unwind$stbi_loadf_from_memory
$pdata$stbi_loadf_from_callbacks DD imagerel $LN3
	DD	imagerel $LN3+140
	DD	imagerel $unwind$stbi_loadf_from_callbacks
$pdata$stbi_loadf DD imagerel $LN6
	DD	imagerel $LN6+158
	DD	imagerel $unwind$stbi_loadf
$pdata$stbi_loadf_from_file DD imagerel $LN3
	DD	imagerel $LN3+132
	DD	imagerel $unwind$stbi_loadf_from_file
$pdata$stbi_is_hdr_from_callbacks DD imagerel $LN3
	DD	imagerel $LN3+95
	DD	imagerel $unwind$stbi_is_hdr_from_callbacks
$pdata$stbi_is_hdr_from_memory DD imagerel $LN3
	DD	imagerel $LN3+94
	DD	imagerel $unwind$stbi_is_hdr_from_memory
$pdata$stbi_is_hdr DD imagerel $LN4
	DD	imagerel $LN4+80
	DD	imagerel $unwind$stbi_is_hdr
$pdata$stbi_is_hdr_from_file DD imagerel $LN3
	DD	imagerel $LN3+127
	DD	imagerel $unwind$stbi_is_hdr_from_file
$pdata$stbi_image_free DD imagerel $LN3
	DD	imagerel $LN3+96
	DD	imagerel $unwind$stbi_image_free
$pdata$stbi_info_from_memory DD imagerel $LN3
	DD	imagerel $LN3+128
	DD	imagerel $unwind$stbi_info_from_memory
$pdata$stbi_info_from_callbacks DD imagerel $LN3
	DD	imagerel $LN3+129
	DD	imagerel $unwind$stbi_info_from_callbacks
$pdata$stbi_is_16_bit_from_memory DD imagerel $LN3
	DD	imagerel $LN3+94
	DD	imagerel $unwind$stbi_is_16_bit_from_memory
$pdata$stbi_is_16_bit_from_callbacks DD imagerel $LN3
	DD	imagerel $LN3+95
	DD	imagerel $unwind$stbi_is_16_bit_from_callbacks
$pdata$stbi_info DD imagerel $LN4
	DD	imagerel $LN4+116
	DD	imagerel $unwind$stbi_info
$pdata$stbi_info_from_file DD imagerel $LN3
	DD	imagerel $LN3+166
	DD	imagerel $unwind$stbi_info_from_file
$pdata$stbi_is_16_bit DD imagerel $LN4
	DD	imagerel $LN4+86
	DD	imagerel $unwind$stbi_is_16_bit
$pdata$stbi_is_16_bit_from_file DD imagerel $LN3
	DD	imagerel $LN3+127
	DD	imagerel $unwind$stbi_is_16_bit_from_file
$pdata$stbi_zlib_decode_malloc_guesssize DD imagerel $LN7
	DD	imagerel $LN7+339
	DD	imagerel $unwind$stbi_zlib_decode_malloc_guesssize
$pdata$stbi_zlib_decode_malloc_guesssize_headerflag DD imagerel $LN7
	DD	imagerel $LN7+342
	DD	imagerel $unwind$stbi_zlib_decode_malloc_guesssize_headerflag
$pdata$stbi_zlib_decode_malloc DD imagerel $LN3
	DD	imagerel $LN3+48
	DD	imagerel $unwind$stbi_zlib_decode_malloc
$pdata$stbi_zlib_decode_buffer DD imagerel $LN5
	DD	imagerel $LN5+180
	DD	imagerel $unwind$stbi_zlib_decode_buffer
$pdata$stbi_zlib_decode_noheader_malloc DD imagerel $LN7
	DD	imagerel $LN7+326
	DD	imagerel $unwind$stbi_zlib_decode_noheader_malloc
$pdata$stbi_zlib_decode_noheader_buffer DD imagerel $LN5
	DD	imagerel $LN5+180
	DD	imagerel $unwind$stbi_zlib_decode_noheader_buffer
$pdata$stbi__cpuid3 DD imagerel stbi__cpuid3
	DD	imagerel stbi__cpuid3+80
	DD	imagerel $unwind$stbi__cpuid3
$pdata$stbi__sse2_available DD imagerel stbi__sse2_available
	DD	imagerel stbi__sse2_available+54
	DD	imagerel $unwind$stbi__sse2_available
$pdata$stbi__refill_buffer DD imagerel stbi__refill_buffer
	DD	imagerel stbi__refill_buffer+231
	DD	imagerel $unwind$stbi__refill_buffer
$pdata$stbi__start_mem DD imagerel stbi__start_mem
	DD	imagerel stbi__start_mem+147
	DD	imagerel $unwind$stbi__start_mem
$pdata$stbi__start_callbacks DD imagerel stbi__start_callbacks
	DD	imagerel stbi__start_callbacks+184
	DD	imagerel $unwind$stbi__start_callbacks
$pdata$stbi__stdio_read DD imagerel stbi__stdio_read
	DD	imagerel stbi__stdio_read+52
	DD	imagerel $unwind$stbi__stdio_read
$pdata$stbi__stdio_skip DD imagerel stbi__stdio_skip
	DD	imagerel stbi__stdio_skip+73
	DD	imagerel $unwind$stbi__stdio_skip
$pdata$stbi__stdio_eof DD imagerel stbi__stdio_eof
	DD	imagerel stbi__stdio_eof+64
	DD	imagerel $unwind$stbi__stdio_eof
$pdata$stbi__start_file DD imagerel stbi__start_file
	DD	imagerel stbi__start_file+41
	DD	imagerel $unwind$stbi__start_file
$pdata$stbi__jpeg_test DD imagerel stbi__jpeg_test
	DD	imagerel stbi__jpeg_test+201
	DD	imagerel $unwind$stbi__jpeg_test
$pdata$stbi__jpeg_load DD imagerel stbi__jpeg_load
	DD	imagerel stbi__jpeg_load+264
	DD	imagerel $unwind$stbi__jpeg_load
$pdata$stbi__jpeg_info DD imagerel stbi__jpeg_info
	DD	imagerel stbi__jpeg_info+212
	DD	imagerel $unwind$stbi__jpeg_info
$pdata$stbi__png_test DD imagerel stbi__png_test
	DD	imagerel stbi__png_test+42
	DD	imagerel $unwind$stbi__png_test
$pdata$stbi__png_load DD imagerel stbi__png_load
	DD	imagerel stbi__png_load+94
	DD	imagerel $unwind$stbi__png_load
$pdata$stbi__png_info DD imagerel stbi__png_info
	DD	imagerel stbi__png_info+64
	DD	imagerel $unwind$stbi__png_info
$pdata$stbi__png_is16 DD imagerel stbi__png_is16
	DD	imagerel stbi__png_is16+76
	DD	imagerel $unwind$stbi__png_is16
$pdata$stbi__bmp_test DD imagerel stbi__bmp_test
	DD	imagerel stbi__bmp_test+42
	DD	imagerel $unwind$stbi__bmp_test
$pdata$stbi__bmp_load DD imagerel stbi__bmp_load
	DD	imagerel stbi__bmp_load+4878
	DD	imagerel $unwind$stbi__bmp_load
$pdata$stbi__bmp_info DD imagerel stbi__bmp_info
	DD	imagerel stbi__bmp_info+249
	DD	imagerel $unwind$stbi__bmp_info
$pdata$stbi__tga_test DD imagerel stbi__tga_test
	DD	imagerel stbi__tga_test+374
	DD	imagerel $unwind$stbi__tga_test
$pdata$stbi__tga_load DD imagerel stbi__tga_load
	DD	imagerel stbi__tga_load+3082
	DD	imagerel $unwind$stbi__tga_load
$pdata$stbi__tga_info DD imagerel stbi__tga_info
	DD	imagerel stbi__tga_info+612
	DD	imagerel $unwind$stbi__tga_info
$pdata$stbi__psd_test DD imagerel stbi__psd_test
	DD	imagerel stbi__psd_test+71
	DD	imagerel $unwind$stbi__psd_test
$pdata$stbi__psd_load DD imagerel stbi__psd_load
	DD	imagerel stbi__psd_load+3070
	DD	imagerel $unwind$stbi__psd_load
$pdata$stbi__psd_info DD imagerel stbi__psd_info
	DD	imagerel stbi__psd_info+327
	DD	imagerel $unwind$stbi__psd_info
$pdata$stbi__psd_is16 DD imagerel stbi__psd_is16
	DD	imagerel stbi__psd_is16+194
	DD	imagerel $unwind$stbi__psd_is16
$pdata$stbi__hdr_test DD imagerel stbi__hdr_test
	DD	imagerel stbi__hdr_test+87
	DD	imagerel $unwind$stbi__hdr_test
$pdata$stbi__hdr_load DD imagerel stbi__hdr_load
	DD	imagerel stbi__hdr_load+3037
	DD	imagerel $unwind$stbi__hdr_load
$pdata$stbi__hdr_info DD imagerel stbi__hdr_info
	DD	imagerel stbi__hdr_info+539
	DD	imagerel $unwind$stbi__hdr_info
$pdata$stbi__pic_test DD imagerel stbi__pic_test
	DD	imagerel stbi__pic_test+42
	DD	imagerel $unwind$stbi__pic_test
$pdata$stbi__pic_load DD imagerel stbi__pic_load
	DD	imagerel stbi__pic_load+777
	DD	imagerel $unwind$stbi__pic_load
$pdata$stbi__pic_info DD imagerel stbi__pic_info
	DD	imagerel stbi__pic_info+642
	DD	imagerel $unwind$stbi__pic_info
$pdata$stbi__gif_test DD imagerel stbi__gif_test
	DD	imagerel stbi__gif_test+42
	DD	imagerel $unwind$stbi__gif_test
$pdata$stbi__gif_load DD imagerel stbi__gif_load
	DD	imagerel stbi__gif_load+560
	DD	imagerel $unwind$stbi__gif_load
$pdata$stbi__load_gif_main DD imagerel stbi__load_gif_main
	DD	imagerel stbi__load_gif_main+1440
	DD	imagerel $unwind$stbi__load_gif_main
$pdata$stbi__gif_info DD imagerel stbi__gif_info
	DD	imagerel stbi__gif_info+54
	DD	imagerel $unwind$stbi__gif_info
$pdata$stbi__pnm_test DD imagerel stbi__pnm_test
	DD	imagerel stbi__pnm_test+91
	DD	imagerel $unwind$stbi__pnm_test
$pdata$stbi__pnm_load DD imagerel stbi__pnm_load
	DD	imagerel stbi__pnm_load+678
	DD	imagerel $unwind$stbi__pnm_load
$pdata$stbi__pnm_info DD imagerel stbi__pnm_info
	DD	imagerel stbi__pnm_info+379
	DD	imagerel $unwind$stbi__pnm_info
$pdata$stbi__pnm_is16 DD imagerel stbi__pnm_is16
	DD	imagerel stbi__pnm_is16+46
	DD	imagerel $unwind$stbi__pnm_is16
$pdata$stbi__malloc DD imagerel stbi__malloc
	DD	imagerel stbi__malloc+97
	DD	imagerel $unwind$stbi__malloc
$pdata$stbi__addsizes_valid DD imagerel stbi__addsizes_valid
	DD	imagerel stbi__addsizes_valid+62
	DD	imagerel $unwind$stbi__addsizes_valid
$pdata$stbi__mul2sizes_valid DD imagerel stbi__mul2sizes_valid
	DD	imagerel stbi__mul2sizes_valid+84
	DD	imagerel $unwind$stbi__mul2sizes_valid
$pdata$stbi__mad2sizes_valid DD imagerel stbi__mad2sizes_valid
	DD	imagerel stbi__mad2sizes_valid+85
	DD	imagerel $unwind$stbi__mad2sizes_valid
$pdata$stbi__mad3sizes_valid DD imagerel stbi__mad3sizes_valid
	DD	imagerel stbi__mad3sizes_valid+119
	DD	imagerel $unwind$stbi__mad3sizes_valid
$pdata$stbi__mad4sizes_valid DD imagerel stbi__mad4sizes_valid
	DD	imagerel stbi__mad4sizes_valid+153
	DD	imagerel $unwind$stbi__mad4sizes_valid
$pdata$stbi__malloc_mad2 DD imagerel stbi__malloc_mad2
	DD	imagerel stbi__malloc_mad2+71
	DD	imagerel $unwind$stbi__malloc_mad2
$pdata$stbi__malloc_mad3 DD imagerel stbi__malloc_mad3
	DD	imagerel stbi__malloc_mad3+86
	DD	imagerel $unwind$stbi__malloc_mad3
$pdata$stbi__malloc_mad4 DD imagerel stbi__malloc_mad4
	DD	imagerel stbi__malloc_mad4+99
	DD	imagerel $unwind$stbi__malloc_mad4
$pdata$stbi__ldr_to_hdr DD imagerel stbi__ldr_to_hdr
	DD	imagerel stbi__ldr_to_hdr+698
	DD	imagerel $unwind$stbi__ldr_to_hdr
$pdata$stbi__hdr_to_ldr DD imagerel stbi__hdr_to_ldr
	DD	imagerel stbi__hdr_to_ldr+776
	DD	imagerel $unwind$stbi__hdr_to_ldr
$pdata$stbi__load_main DD imagerel stbi__load_main
	DD	imagerel stbi__load_main+885
	DD	imagerel $unwind$stbi__load_main
$pdata$stbi__convert_16_to_8 DD imagerel stbi__convert_16_to_8
	DD	imagerel stbi__convert_16_to_8+290
	DD	imagerel $unwind$stbi__convert_16_to_8
$pdata$stbi__convert_8_to_16 DD imagerel stbi__convert_8_to_16
	DD	imagerel stbi__convert_8_to_16+308
	DD	imagerel $unwind$stbi__convert_8_to_16
$pdata$stbi__vertical_flip DD imagerel stbi__vertical_flip
	DD	imagerel stbi__vertical_flip+410
	DD	imagerel $unwind$stbi__vertical_flip
$pdata$stbi__vertical_flip_slices DD imagerel stbi__vertical_flip_slices
	DD	imagerel stbi__vertical_flip_slices+133
	DD	imagerel $unwind$stbi__vertical_flip_slices
$pdata$stbi__load_and_postprocess_8bit DD imagerel stbi__load_and_postprocess_8bit
	DD	imagerel stbi__load_and_postprocess_8bit+453
	DD	imagerel $unwind$stbi__load_and_postprocess_8bit
$pdata$stbi__load_and_postprocess_16bit DD imagerel stbi__load_and_postprocess_16bit
	DD	imagerel stbi__load_and_postprocess_16bit+459
	DD	imagerel $unwind$stbi__load_and_postprocess_16bit
$pdata$stbi__float_postprocess DD imagerel stbi__float_postprocess
	DD	imagerel stbi__float_postprocess+194
	DD	imagerel $unwind$stbi__float_postprocess
$pdata$stbi__fopen DD imagerel stbi__fopen
	DD	imagerel stbi__fopen+57
	DD	imagerel $unwind$stbi__fopen
$pdata$stbi__loadf_main DD imagerel stbi__loadf_main
	DD	imagerel stbi__loadf_main+377
	DD	imagerel $unwind$stbi__loadf_main
$pdata$stbi__get8 DD imagerel stbi__get8
	DD	imagerel stbi__get8+169
	DD	imagerel $unwind$stbi__get8
$pdata$stbi__at_eof DD imagerel stbi__at_eof
	DD	imagerel stbi__at_eof+117
	DD	imagerel $unwind$stbi__at_eof
$pdata$stbi__skip DD imagerel stbi__skip
	DD	imagerel stbi__skip+205
	DD	imagerel $unwind$stbi__skip
$pdata$stbi__getn DD imagerel stbi__getn
	DD	imagerel stbi__getn+345
	DD	imagerel $unwind$stbi__getn
$pdata$stbi__get16be DD imagerel stbi__get16be
	DD	imagerel stbi__get16be+63
	DD	imagerel $unwind$stbi__get16be
$pdata$stbi__get32be DD imagerel stbi__get32be
	DD	imagerel stbi__get32be+57
	DD	imagerel $unwind$stbi__get32be
$pdata$stbi__get16le DD imagerel stbi__get16le
	DD	imagerel stbi__get16le+55
	DD	imagerel $unwind$stbi__get16le
$pdata$stbi__get32le DD imagerel stbi__get32le
	DD	imagerel stbi__get32le+57
	DD	imagerel $unwind$stbi__get32le
$pdata$stbi__convert_format DD imagerel stbi__convert_format
	DD	imagerel stbi__convert_format+2976
	DD	imagerel $unwind$stbi__convert_format
$pdata$stbi__convert_format16 DD imagerel stbi__convert_format16
	DD	imagerel stbi__convert_format16+3028
	DD	imagerel $unwind$stbi__convert_format16
$pdata$stbi__build_huffman DD imagerel stbi__build_huffman
	DD	imagerel stbi__build_huffman+648
	DD	imagerel $unwind$stbi__build_huffman
$pdata$stbi__build_fast_ac DD imagerel stbi__build_fast_ac
	DD	imagerel stbi__build_fast_ac+367
	DD	imagerel $unwind$stbi__build_fast_ac
$pdata$stbi__grow_buffer_unsafe DD imagerel stbi__grow_buffer_unsafe
	DD	imagerel stbi__grow_buffer_unsafe+264
	DD	imagerel $unwind$stbi__grow_buffer_unsafe
$pdata$stbi__jpeg_huff_decode DD imagerel stbi__jpeg_huff_decode
	DD	imagerel stbi__jpeg_huff_decode+661
	DD	imagerel $unwind$stbi__jpeg_huff_decode
$pdata$stbi__extend_receive DD imagerel stbi__extend_receive
	DD	imagerel stbi__extend_receive+209
	DD	imagerel $unwind$stbi__extend_receive
$pdata$stbi__jpeg_get_bits DD imagerel stbi__jpeg_get_bits
	DD	imagerel stbi__jpeg_get_bits+164
	DD	imagerel $unwind$stbi__jpeg_get_bits
$pdata$stbi__jpeg_get_bit DD imagerel stbi__jpeg_get_bit
	DD	imagerel stbi__jpeg_get_bit+110
	DD	imagerel $unwind$stbi__jpeg_get_bit
$pdata$stbi__jpeg_decode_block DD imagerel stbi__jpeg_decode_block
	DD	imagerel stbi__jpeg_decode_block+740
	DD	imagerel $unwind$stbi__jpeg_decode_block
$pdata$stbi__jpeg_decode_block_prog_dc DD imagerel stbi__jpeg_decode_block_prog_dc
	DD	imagerel stbi__jpeg_decode_block_prog_dc+405
	DD	imagerel $unwind$stbi__jpeg_decode_block_prog_dc
$pdata$stbi__jpeg_decode_block_prog_ac DD imagerel stbi__jpeg_decode_block_prog_ac
	DD	imagerel stbi__jpeg_decode_block_prog_ac+1618
	DD	imagerel $unwind$stbi__jpeg_decode_block_prog_ac
$pdata$stbi__idct_block DD imagerel stbi__idct_block
	DD	imagerel stbi__idct_block+2715
	DD	imagerel $unwind$stbi__idct_block
$pdata$stbi__idct_simd DD imagerel stbi__idct_simd
	DD	imagerel stbi__idct_simd+6280
	DD	imagerel $unwind$stbi__idct_simd
$pdata$stbi__get_marker DD imagerel stbi__get_marker
	DD	imagerel stbi__get_marker+137
	DD	imagerel $unwind$stbi__get_marker
$pdata$stbi__jpeg_reset DD imagerel stbi__jpeg_reset
	DD	imagerel stbi__jpeg_reset+237
	DD	imagerel $unwind$stbi__jpeg_reset
$pdata$stbi__parse_entropy_coded_data DD imagerel stbi__parse_entropy_coded_data
	DD	imagerel stbi__parse_entropy_coded_data+3156
	DD	imagerel $unwind$stbi__parse_entropy_coded_data
$pdata$stbi__jpeg_dequantize DD imagerel stbi__jpeg_dequantize
	DD	imagerel stbi__jpeg_dequantize+86
	DD	imagerel $unwind$stbi__jpeg_dequantize
$pdata$stbi__jpeg_finish DD imagerel stbi__jpeg_finish
	DD	imagerel stbi__jpeg_finish+457
	DD	imagerel $unwind$stbi__jpeg_finish
$pdata$stbi__process_marker DD imagerel stbi__process_marker
	DD	imagerel stbi__process_marker+1716
	DD	imagerel $unwind$stbi__process_marker
$pdata$stbi__process_scan_header DD imagerel stbi__process_scan_header
	DD	imagerel stbi__process_scan_header+812
	DD	imagerel $unwind$stbi__process_scan_header
$pdata$stbi__free_jpeg_components DD imagerel stbi__free_jpeg_components
	DD	imagerel stbi__free_jpeg_components+653
	DD	imagerel $unwind$stbi__free_jpeg_components
$pdata$stbi__process_frame_header DD imagerel stbi__process_frame_header
	DD	imagerel stbi__process_frame_header+2318
	DD	imagerel $unwind$stbi__process_frame_header
$pdata$stbi__decode_jpeg_header DD imagerel stbi__decode_jpeg_header
	DD	imagerel stbi__decode_jpeg_header+345
	DD	imagerel $unwind$stbi__decode_jpeg_header
$pdata$stbi__decode_jpeg_image DD imagerel stbi__decode_jpeg_image
	DD	imagerel stbi__decode_jpeg_image+487
	DD	imagerel $unwind$stbi__decode_jpeg_image
$pdata$stbi__resample_row_v_2 DD imagerel stbi__resample_row_v_2
	DD	imagerel stbi__resample_row_v_2+110
	DD	imagerel $unwind$stbi__resample_row_v_2
$pdata$stbi__resample_row_h_2 DD imagerel stbi__resample_row_h_2
	DD	imagerel stbi__resample_row_h_2+474
	DD	imagerel $unwind$stbi__resample_row_h_2
$pdata$stbi__resample_row_hv_2 DD imagerel stbi__resample_row_hv_2
	DD	imagerel stbi__resample_row_hv_2+383
	DD	imagerel $unwind$stbi__resample_row_hv_2
$pdata$stbi__resample_row_hv_2_simd DD imagerel stbi__resample_row_hv_2_simd
	DD	imagerel stbi__resample_row_hv_2_simd+1205
	DD	imagerel $unwind$stbi__resample_row_hv_2_simd
$pdata$stbi__resample_row_generic DD imagerel stbi__resample_row_generic
	DD	imagerel stbi__resample_row_generic+131
	DD	imagerel $unwind$stbi__resample_row_generic
$pdata$stbi__YCbCr_to_RGB_row DD imagerel stbi__YCbCr_to_RGB_row
	DD	imagerel stbi__YCbCr_to_RGB_row+451
	DD	imagerel $unwind$stbi__YCbCr_to_RGB_row
$pdata$stbi__YCbCr_to_RGB_simd DD imagerel stbi__YCbCr_to_RGB_simd
	DD	imagerel stbi__YCbCr_to_RGB_simd+1356
	DD	imagerel $unwind$stbi__YCbCr_to_RGB_simd
$pdata$stbi__setup_jpeg DD imagerel stbi__setup_jpeg
	DD	imagerel stbi__setup_jpeg+137
	DD	imagerel $unwind$stbi__setup_jpeg
$pdata$stbi__cleanup_jpeg DD imagerel stbi__cleanup_jpeg
	DD	imagerel stbi__cleanup_jpeg+38
	DD	imagerel $unwind$stbi__cleanup_jpeg
$pdata$stbi__blinn_8x8 DD imagerel stbi__blinn_8x8
	DD	imagerel stbi__blinn_8x8+54
	DD	imagerel $unwind$stbi__blinn_8x8
$pdata$load_jpeg_image DD imagerel load_jpeg_image
	DD	imagerel load_jpeg_image+4520
	DD	imagerel $unwind$load_jpeg_image
$pdata$stbi__jpeg_info_raw DD imagerel stbi__jpeg_info_raw
	DD	imagerel stbi__jpeg_info_raw+172
	DD	imagerel $unwind$stbi__jpeg_info_raw
$pdata$stbi__bit_reverse DD imagerel stbi__bit_reverse
	DD	imagerel stbi__bit_reverse+71
	DD	imagerel $unwind$stbi__bit_reverse
$pdata$stbi__zbuild_huffman DD imagerel stbi__zbuild_huffman
	DD	imagerel stbi__zbuild_huffman+896
	DD	imagerel $unwind$stbi__zbuild_huffman
$pdata$stbi__zeof DD imagerel stbi__zeof
	DD	imagerel stbi__zeof+52
	DD	imagerel $unwind$stbi__zeof
$pdata$stbi__zget8 DD imagerel stbi__zget8
	DD	imagerel stbi__zget8+77
	DD	imagerel $unwind$stbi__zget8
$pdata$stbi__fill_bits DD imagerel stbi__fill_bits
	DD	imagerel stbi__fill_bits+142
	DD	imagerel $unwind$stbi__fill_bits
$pdata$stbi__zreceive DD imagerel stbi__zreceive
	DD	imagerel stbi__zreceive+143
	DD	imagerel $unwind$stbi__zreceive
$pdata$stbi__zhuffman_decode_slowpath DD imagerel stbi__zhuffman_decode_slowpath
	DD	imagerel stbi__zhuffman_decode_slowpath+290
	DD	imagerel $unwind$stbi__zhuffman_decode_slowpath
$pdata$stbi__zhuffman_decode DD imagerel stbi__zhuffman_decode
	DD	imagerel stbi__zhuffman_decode+193
	DD	imagerel $unwind$stbi__zhuffman_decode
$pdata$stbi__zexpand DD imagerel stbi__zexpand
	DD	imagerel stbi__zexpand+450
	DD	imagerel $unwind$stbi__zexpand
$pdata$stbi__parse_huffman_block DD imagerel stbi__parse_huffman_block
	DD	imagerel stbi__parse_huffman_block+707
	DD	imagerel $unwind$stbi__parse_huffman_block
$pdata$stbi__compute_huffman_codes DD imagerel stbi__compute_huffman_codes
	DD	imagerel stbi__compute_huffman_codes+787
	DD	imagerel $unwind$stbi__compute_huffman_codes
$pdata$stbi__parse_uncompressed_block DD imagerel stbi__parse_uncompressed_block
	DD	imagerel stbi__parse_uncompressed_block+498
	DD	imagerel $unwind$stbi__parse_uncompressed_block
$pdata$stbi__parse_zlib_header DD imagerel stbi__parse_zlib_header
	DD	imagerel stbi__parse_zlib_header+178
	DD	imagerel $unwind$stbi__parse_zlib_header
$pdata$stbi__parse_zlib DD imagerel stbi__parse_zlib
	DD	imagerel stbi__parse_zlib+296
	DD	imagerel $unwind$stbi__parse_zlib
$pdata$stbi__do_zlib DD imagerel stbi__do_zlib
	DD	imagerel stbi__do_zlib+108
	DD	imagerel $unwind$stbi__do_zlib
$pdata$stbi__get_chunk_header DD imagerel stbi__get_chunk_header
	DD	imagerel stbi__get_chunk_header+47
	DD	imagerel $unwind$stbi__get_chunk_header
$pdata$stbi__check_png_header DD imagerel stbi__check_png_header
	DD	imagerel stbi__check_png_header+95
	DD	imagerel $unwind$stbi__check_png_header
$pdata$stbi__paeth DD imagerel stbi__paeth
	DD	imagerel stbi__paeth+157
	DD	imagerel $unwind$stbi__paeth
$pdata$stbi__create_png_image_raw DD imagerel stbi__create_png_image_raw
	DD	imagerel stbi__create_png_image_raw+6296
	DD	imagerel $unwind$stbi__create_png_image_raw
$pdata$stbi__create_png_image DD imagerel stbi__create_png_image
	DD	imagerel stbi__create_png_image+1431
	DD	imagerel $unwind$stbi__create_png_image
$pdata$stbi__compute_transparency DD imagerel stbi__compute_transparency
	DD	imagerel stbi__compute_transparency+450
	DD	imagerel $unwind$stbi__compute_transparency
$pdata$stbi__compute_transparency16 DD imagerel stbi__compute_transparency16
	DD	imagerel stbi__compute_transparency16+453
	DD	imagerel $unwind$stbi__compute_transparency16
$pdata$stbi__expand_png_palette DD imagerel stbi__expand_png_palette
	DD	imagerel stbi__expand_png_palette+682
	DD	imagerel $unwind$stbi__expand_png_palette
$pdata$stbi__de_iphone DD imagerel stbi__de_iphone
	DD	imagerel stbi__de_iphone+800
	DD	imagerel $unwind$stbi__de_iphone
$pdata$stbi__parse_png_file DD imagerel stbi__parse_png_file
	DD	imagerel stbi__parse_png_file+3649
	DD	imagerel $unwind$stbi__parse_png_file
$pdata$stbi__do_png DD imagerel stbi__do_png
	DD	imagerel stbi__do_png+913
	DD	imagerel $unwind$stbi__do_png
$pdata$stbi__png_info_raw DD imagerel stbi__png_info_raw
	DD	imagerel stbi__png_info_raw+150
	DD	imagerel $unwind$stbi__png_info_raw
$pdata$stbi__bmp_test_raw DD imagerel stbi__bmp_test_raw
	DD	imagerel stbi__bmp_test_raw+180
	DD	imagerel $unwind$stbi__bmp_test_raw
$pdata$stbi__high_bit DD imagerel stbi__high_bit
	DD	imagerel stbi__high_bit+169
	DD	imagerel $unwind$stbi__high_bit
$pdata$stbi__shiftsigned DD imagerel stbi__shiftsigned
	DD	imagerel stbi__shiftsigned+206
	DD	imagerel $unwind$stbi__shiftsigned
$pdata$stbi__bmp_parse_header DD imagerel stbi__bmp_parse_header
	DD	imagerel stbi__bmp_parse_header+1589
	DD	imagerel $unwind$stbi__bmp_parse_header
$pdata$stbi__tga_get_comp DD imagerel stbi__tga_get_comp
	DD	imagerel stbi__tga_get_comp+144
	DD	imagerel $unwind$stbi__tga_get_comp
$pdata$stbi__tga_read_rgb16 DD imagerel stbi__tga_read_rgb16
	DD	imagerel stbi__tga_read_rgb16+197
	DD	imagerel $unwind$stbi__tga_read_rgb16
$pdata$stbi__psd_decode_rle DD imagerel stbi__psd_decode_rle
	DD	imagerel stbi__psd_decode_rle+318
	DD	imagerel $unwind$stbi__psd_decode_rle
$pdata$stbi__pic_is4 DD imagerel stbi__pic_is4
	DD	imagerel stbi__pic_is4+88
	DD	imagerel $unwind$stbi__pic_is4
$pdata$stbi__pic_test_core DD imagerel stbi__pic_test_core
	DD	imagerel stbi__pic_test_core+108
	DD	imagerel $unwind$stbi__pic_test_core
$pdata$stbi__readval DD imagerel stbi__readval
	DD	imagerel stbi__readval+171
	DD	imagerel $unwind$stbi__readval
$pdata$stbi__copyval DD imagerel stbi__copyval
	DD	imagerel stbi__copyval+108
	DD	imagerel $unwind$stbi__copyval
$pdata$stbi__pic_load_core DD imagerel stbi__pic_load_core
	DD	imagerel stbi__pic_load_core+1624
	DD	imagerel $unwind$stbi__pic_load_core
$pdata$stbi__gif_test_raw DD imagerel stbi__gif_test_raw
	DD	imagerel stbi__gif_test_raw+152
	DD	imagerel $unwind$stbi__gif_test_raw
$pdata$stbi__gif_parse_colortable DD imagerel stbi__gif_parse_colortable
	DD	imagerel stbi__gif_parse_colortable+235
	DD	imagerel $unwind$stbi__gif_parse_colortable
$pdata$stbi__gif_header DD imagerel stbi__gif_header
	DD	imagerel stbi__gif_header+524
	DD	imagerel $unwind$stbi__gif_header
$pdata$stbi__gif_info_raw DD imagerel stbi__gif_info_raw
	DD	imagerel stbi__gif_info_raw+353
	DD	imagerel $unwind$stbi__gif_info_raw
$pdata$stbi__out_gif_code DD imagerel stbi__out_gif_code
	DD	imagerel stbi__out_gif_code+662
	DD	imagerel $unwind$stbi__out_gif_code
$pdata$stbi__process_gif_raster DD imagerel stbi__process_gif_raster
	DD	imagerel stbi__process_gif_raster+1123
	DD	imagerel $unwind$stbi__process_gif_raster
$pdata$stbi__gif_load_next DD imagerel stbi__gif_load_next
	DD	imagerel stbi__gif_load_next+2555
	DD	imagerel $unwind$stbi__gif_load_next
$pdata$stbi__load_gif_main_outofmem DD imagerel stbi__load_gif_main_outofmem
	DD	imagerel stbi__load_gif_main_outofmem+549
	DD	imagerel $unwind$stbi__load_gif_main_outofmem
$pdata$stbi__hdr_test_core DD imagerel stbi__hdr_test_core
	DD	imagerel stbi__hdr_test_core+109
	DD	imagerel $unwind$stbi__hdr_test_core
$pdata$stbi__hdr_gettoken DD imagerel stbi__hdr_gettoken
	DD	imagerel stbi__hdr_gettoken+179
	DD	imagerel $unwind$stbi__hdr_gettoken
$pdata$stbi__hdr_convert DD imagerel stbi__hdr_convert
	DD	imagerel stbi__hdr_convert+608
	DD	imagerel $unwind$stbi__hdr_convert
$pdata$stbi__pnm_isspace DD imagerel stbi__pnm_isspace
	DD	imagerel stbi__pnm_isspace+92
	DD	imagerel $unwind$stbi__pnm_isspace
$pdata$stbi__pnm_skip_whitespace DD imagerel stbi__pnm_skip_whitespace
	DD	imagerel stbi__pnm_skip_whitespace+162
	DD	imagerel $unwind$stbi__pnm_skip_whitespace
$pdata$stbi__pnm_isdigit DD imagerel stbi__pnm_isdigit
	DD	imagerel stbi__pnm_isdigit+52
	DD	imagerel $unwind$stbi__pnm_isdigit
$pdata$stbi__pnm_getinteger DD imagerel stbi__pnm_getinteger
	DD	imagerel stbi__pnm_getinteger+102
	DD	imagerel $unwind$stbi__pnm_getinteger
$pdata$stbi__info_main DD imagerel stbi__info_main
	DD	imagerel stbi__info_main+380
	DD	imagerel $unwind$stbi__info_main
$pdata$stbi__is_16_main DD imagerel stbi__is_16_main
	DD	imagerel stbi__is_16_main+79
	DD	imagerel $unwind$stbi__is_16_main
$pdata$stbir_resize_uint8 DD imagerel $LN3
	DD	imagerel $LN3+273
	DD	imagerel $unwind$stbir_resize_uint8
$pdata$stbir_resize_float DD imagerel $LN3
	DD	imagerel $LN3+273
	DD	imagerel $unwind$stbir_resize_float
$pdata$stbir_resize_uint8_srgb DD imagerel $LN3
	DD	imagerel $LN3+279
	DD	imagerel $unwind$stbir_resize_uint8_srgb
$pdata$stbir_resize_uint8_srgb_edgemode DD imagerel $LN3
	DD	imagerel $LN3+285
	DD	imagerel $unwind$stbir_resize_uint8_srgb_edgemode
$pdata$stbir_resize_uint8_generic DD imagerel $LN3
	DD	imagerel $LN3+300
	DD	imagerel $unwind$stbir_resize_uint8_generic
$pdata$stbir_resize_uint16_generic DD imagerel $LN3
	DD	imagerel $LN3+300
	DD	imagerel $unwind$stbir_resize_uint16_generic
$pdata$stbir_resize_float_generic DD imagerel $LN3
	DD	imagerel $LN3+300
	DD	imagerel $unwind$stbir_resize_float_generic
$pdata$stbir_resize DD imagerel $LN3
	DD	imagerel $LN3+303
	DD	imagerel $unwind$stbir_resize
$pdata$stbir_resize_subpixel DD imagerel $LN3
	DD	imagerel $LN3+449
	DD	imagerel $unwind$stbir_resize_subpixel
$pdata$stbir_resize_region DD imagerel $LN3
	DD	imagerel $LN3+317
	DD	imagerel $unwind$stbir_resize_region
$pdata$stbir__min DD imagerel stbir__min
	DD	imagerel stbir__min+46
	DD	imagerel $unwind$stbir__min
$pdata$stbir__srgb_to_linear DD imagerel stbir__srgb_to_linear
	DD	imagerel stbir__srgb_to_linear+91
	DD	imagerel $unwind$stbir__srgb_to_linear
$pdata$stbir__linear_to_srgb DD imagerel stbir__linear_to_srgb
	DD	imagerel stbir__linear_to_srgb+94
	DD	imagerel $unwind$stbir__linear_to_srgb
$pdata$stbir__linear_to_srgb_uchar DD imagerel stbir__linear_to_srgb_uchar
	DD	imagerel stbir__linear_to_srgb_uchar+178
	DD	imagerel $unwind$stbir__linear_to_srgb_uchar
$pdata$stbir__filter_trapezoid DD imagerel stbir__filter_trapezoid
	DD	imagerel stbir__filter_trapezoid+207
	DD	imagerel $unwind$stbir__filter_trapezoid
$pdata$stbir__support_trapezoid DD imagerel stbir__support_trapezoid
	DD	imagerel stbir__support_trapezoid+86
	DD	imagerel $unwind$stbir__support_trapezoid
$pdata$stbir__filter_triangle DD imagerel stbir__filter_triangle
	DD	imagerel stbir__filter_triangle+78
	DD	imagerel $unwind$stbir__filter_triangle
$pdata$stbir__filter_cubic DD imagerel stbir__filter_cubic
	DD	imagerel stbir__filter_cubic+220
	DD	imagerel $unwind$stbir__filter_cubic
$pdata$stbir__filter_catmullrom DD imagerel stbir__filter_catmullrom
	DD	imagerel stbir__filter_catmullrom+219
	DD	imagerel $unwind$stbir__filter_catmullrom
$pdata$stbir__filter_mitchell DD imagerel stbir__filter_mitchell
	DD	imagerel stbir__filter_mitchell+235
	DD	imagerel $unwind$stbir__filter_mitchell
$pdata$stbir__use_upsampling DD imagerel stbir__use_upsampling
	DD	imagerel stbir__use_upsampling+49
	DD	imagerel $unwind$stbir__use_upsampling
$pdata$stbir__use_width_upsampling DD imagerel stbir__use_width_upsampling
	DD	imagerel stbir__use_width_upsampling+29
	DD	imagerel $unwind$stbir__use_width_upsampling
$pdata$stbir__use_height_upsampling DD imagerel stbir__use_height_upsampling
	DD	imagerel stbir__use_height_upsampling+29
	DD	imagerel $unwind$stbir__use_height_upsampling
$pdata$stbir__get_filter_pixel_width DD imagerel stbir__get_filter_pixel_width
	DD	imagerel stbir__get_filter_pixel_width+218
	DD	imagerel $unwind$stbir__get_filter_pixel_width
$pdata$stbir__get_filter_pixel_margin DD imagerel stbir__get_filter_pixel_margin
	DD	imagerel stbir__get_filter_pixel_margin+39
	DD	imagerel $unwind$stbir__get_filter_pixel_margin
$pdata$stbir__get_coefficient_width DD imagerel stbir__get_coefficient_width
	DD	imagerel stbir__get_coefficient_width+140
	DD	imagerel $unwind$stbir__get_coefficient_width
$pdata$stbir__get_contributors DD imagerel stbir__get_contributors
	DD	imagerel stbir__get_contributors+74
	DD	imagerel $unwind$stbir__get_contributors
$pdata$stbir__get_total_horizontal_coefficients DD imagerel stbir__get_total_horizontal_coefficients
	DD	imagerel stbir__get_total_horizontal_coefficients+53
	DD	imagerel $unwind$stbir__get_total_horizontal_coefficients
$pdata$stbir__get_total_vertical_coefficients DD imagerel stbir__get_total_vertical_coefficients
	DD	imagerel stbir__get_total_vertical_coefficients+53
	DD	imagerel $unwind$stbir__get_total_vertical_coefficients
$pdata$stbir__get_coefficient DD imagerel stbir__get_coefficient
	DD	imagerel stbir__get_coefficient+72
	DD	imagerel $unwind$stbir__get_coefficient
$pdata$stbir__edge_wrap_slow DD imagerel stbir__edge_wrap_slow
	DD	imagerel stbir__edge_wrap_slow+329
	DD	imagerel $unwind$stbir__edge_wrap_slow
$pdata$stbir__edge_wrap DD imagerel stbir__edge_wrap
	DD	imagerel stbir__edge_wrap+63
	DD	imagerel $unwind$stbir__edge_wrap
$pdata$stbir__calculate_sample_range_upsample DD imagerel stbir__calculate_sample_range_upsample
	DD	imagerel stbir__calculate_sample_range_upsample+225
	DD	imagerel $unwind$stbir__calculate_sample_range_upsample
$pdata$stbir__calculate_sample_range_downsample DD imagerel stbir__calculate_sample_range_downsample
	DD	imagerel stbir__calculate_sample_range_downsample+225
	DD	imagerel $unwind$stbir__calculate_sample_range_downsample
$pdata$stbir__calculate_coefficients_upsample DD imagerel stbir__calculate_coefficients_upsample
	DD	imagerel stbir__calculate_coefficients_upsample+746
	DD	imagerel $unwind$stbir__calculate_coefficients_upsample
$pdata$stbir__calculate_coefficients_downsample DD imagerel stbir__calculate_coefficients_downsample
	DD	imagerel stbir__calculate_coefficients_downsample+425
	DD	imagerel $unwind$stbir__calculate_coefficients_downsample
$pdata$stbir__normalize_downsample_coefficients DD imagerel stbir__normalize_downsample_coefficients
	DD	imagerel stbir__normalize_downsample_coefficients+1209
	DD	imagerel $unwind$stbir__normalize_downsample_coefficients
$pdata$stbir__calculate_filters DD imagerel stbir__calculate_filters
	DD	imagerel stbir__calculate_filters+747
	DD	imagerel $unwind$stbir__calculate_filters
$pdata$stbir__decode_scanline DD imagerel stbir__decode_scanline
	DD	imagerel stbir__decode_scanline+2732
	DD	imagerel $unwind$stbir__decode_scanline
$pdata$stbir__add_empty_ring_buffer_entry DD imagerel stbir__add_empty_ring_buffer_entry
	DD	imagerel stbir__add_empty_ring_buffer_entry+271
	DD	imagerel $unwind$stbir__add_empty_ring_buffer_entry
$pdata$stbir__resample_horizontal_upsample DD imagerel stbir__resample_horizontal_upsample
	DD	imagerel stbir__resample_horizontal_upsample+2105
	DD	imagerel $unwind$stbir__resample_horizontal_upsample
$pdata$stbir__resample_horizontal_downsample DD imagerel stbir__resample_horizontal_downsample
	DD	imagerel stbir__resample_horizontal_downsample+2350
	DD	imagerel $unwind$stbir__resample_horizontal_downsample
$pdata$stbir__decode_and_resample_upsample DD imagerel stbir__decode_and_resample_upsample
	DD	imagerel stbir__decode_and_resample_upsample+102
	DD	imagerel $unwind$stbir__decode_and_resample_upsample
$pdata$stbir__decode_and_resample_downsample DD imagerel stbir__decode_and_resample_downsample
	DD	imagerel stbir__decode_and_resample_downsample+137
	DD	imagerel $unwind$stbir__decode_and_resample_downsample
$pdata$stbir__get_ring_buffer_scanline DD imagerel stbir__get_ring_buffer_scanline
	DD	imagerel stbir__get_ring_buffer_scanline+78
	DD	imagerel $unwind$stbir__get_ring_buffer_scanline
$pdata$stbir__encode_scanline DD imagerel stbir__encode_scanline
	DD	imagerel stbir__encode_scanline+2348
	DD	imagerel $unwind$stbir__encode_scanline
$pdata$stbir__resample_vertical_upsample DD imagerel stbir__resample_vertical_upsample
	DD	imagerel stbir__resample_vertical_upsample+2601
	DD	imagerel $unwind$stbir__resample_vertical_upsample
$pdata$stbir__resample_vertical_downsample DD imagerel stbir__resample_vertical_downsample
	DD	imagerel stbir__resample_vertical_downsample+1650
	DD	imagerel $unwind$stbir__resample_vertical_downsample
$pdata$stbir__buffer_loop_upsample DD imagerel stbir__buffer_loop_upsample
	DD	imagerel stbir__buffer_loop_upsample+569
	DD	imagerel $unwind$stbir__buffer_loop_upsample
$pdata$stbir__empty_ring_buffer DD imagerel stbir__empty_ring_buffer
	DD	imagerel stbir__empty_ring_buffer+583
	DD	imagerel $unwind$stbir__empty_ring_buffer
$pdata$stbir__buffer_loop_downsample DD imagerel stbir__buffer_loop_downsample
	DD	imagerel stbir__buffer_loop_downsample+520
	DD	imagerel $unwind$stbir__buffer_loop_downsample
$pdata$stbir__choose_filter DD imagerel stbir__choose_filter
	DD	imagerel stbir__choose_filter+151
	DD	imagerel $unwind$stbir__choose_filter
$pdata$stbir__calculate_memory DD imagerel stbir__calculate_memory
	DD	imagerel stbir__calculate_memory+746
	DD	imagerel $unwind$stbir__calculate_memory
$pdata$stbir__resize_allocated DD imagerel stbir__resize_allocated
	DD	imagerel stbir__resize_allocated+1851
	DD	imagerel $unwind$stbir__resize_allocated
$pdata$stbir__resize_arbitrary DD imagerel stbir__resize_arbitrary
	DD	imagerel stbir__resize_arbitrary+553
	DD	imagerel $unwind$stbir__resize_arbitrary
$pdata$stbi_write_png DD imagerel $LN5
	DD	imagerel $LN5+351
	DD	imagerel $unwind$stbi_write_png
$pdata$stbi_write_bmp DD imagerel $LN5
	DD	imagerel $LN5+179
	DD	imagerel $unwind$stbi_write_bmp
$pdata$stbi_write_tga DD imagerel $LN5
	DD	imagerel $LN5+179
	DD	imagerel $unwind$stbi_write_tga
$pdata$stbi_write_hdr DD imagerel $LN5
	DD	imagerel $LN5+179
	DD	imagerel $unwind$stbi_write_hdr
$pdata$stbi_write_jpg DD imagerel $LN5
	DD	imagerel $LN5+190
	DD	imagerel $unwind$stbi_write_jpg
$pdata$stbi_write_png_to_func DD imagerel $LN4
	DD	imagerel $LN4+218
	DD	imagerel $unwind$stbi_write_png_to_func
$pdata$stbi_write_bmp_to_func DD imagerel $LN3
	DD	imagerel $LN3+160
	DD	imagerel $unwind$stbi_write_bmp_to_func
$pdata$stbi_write_tga_to_func DD imagerel $LN3
	DD	imagerel $LN3+160
	DD	imagerel $unwind$stbi_write_tga_to_func
$pdata$stbi_write_hdr_to_func DD imagerel $LN3
	DD	imagerel $LN3+160
	DD	imagerel $unwind$stbi_write_hdr_to_func
$pdata$stbi_write_jpg_to_func DD imagerel $LN3
	DD	imagerel $LN3+171
	DD	imagerel $unwind$stbi_write_jpg_to_func
$pdata$stbi__stdio_write DD imagerel stbi__stdio_write
	DD	imagerel stbi__stdio_write+52
	DD	imagerel $unwind$stbi__stdio_write
$pdata$stbiw__fopen DD imagerel stbiw__fopen
	DD	imagerel stbiw__fopen+57
	DD	imagerel $unwind$stbiw__fopen
$pdata$stbi__start_write_file DD imagerel stbi__start_write_file
	DD	imagerel stbi__start_write_file+93
	DD	imagerel $unwind$stbi__start_write_file
$pdata$stbi__end_write_file DD imagerel stbi__end_write_file
	DD	imagerel stbi__end_write_file+28
	DD	imagerel $unwind$stbi__end_write_file
$pdata$stbiw__writefv DD imagerel stbiw__writefv
	DD	imagerel stbiw__writefv+475
	DD	imagerel $unwind$stbiw__writefv
$pdata$stbiw__writef DD imagerel stbiw__writef
	DD	imagerel stbiw__writef+68
	DD	imagerel $unwind$stbiw__writef
$pdata$stbiw__write_flush DD imagerel stbiw__write_flush
	DD	imagerel stbiw__write_flush+74
	DD	imagerel $unwind$stbiw__write_flush
$pdata$stbiw__putc DD imagerel stbiw__putc
	DD	imagerel stbiw__putc+45
	DD	imagerel $unwind$stbiw__putc
$pdata$stbiw__write1 DD imagerel stbiw__write1
	DD	imagerel stbiw__write1+87
	DD	imagerel $unwind$stbiw__write1
$pdata$stbiw__write3 DD imagerel stbiw__write3
	DD	imagerel stbiw__write3+149
	DD	imagerel $unwind$stbiw__write3
$pdata$stbiw__write_pixel DD imagerel stbiw__write_pixel
	DD	imagerel stbiw__write_pixel+519
	DD	imagerel $unwind$stbiw__write_pixel
$pdata$stbiw__write_pixels DD imagerel stbiw__write_pixels
	DD	imagerel stbiw__write_pixels+319
	DD	imagerel $unwind$stbiw__write_pixels
$pdata$stbiw__outfile DD imagerel stbiw__outfile
	DD	imagerel stbiw__outfile+208
	DD	imagerel $unwind$stbiw__outfile
$pdata$stbi_write_bmp_core DD imagerel stbi_write_bmp_core
	DD	imagerel stbi_write_bmp_core+902
	DD	imagerel $unwind$stbi_write_bmp_core
$pdata$stbi_write_tga_core DD imagerel stbi_write_tga_core
	DD	imagerel stbi_write_tga_core+1764
	DD	imagerel $unwind$stbi_write_tga_core
$pdata$stbiw__linear_to_rgbe DD imagerel stbiw__linear_to_rgbe
	DD	imagerel stbiw__linear_to_rgbe+582
	DD	imagerel $unwind$stbiw__linear_to_rgbe
$pdata$stbiw__write_run_data DD imagerel stbiw__write_run_data
	DD	imagerel stbiw__write_run_data+138
	DD	imagerel $unwind$stbiw__write_run_data
$pdata$stbiw__write_dump_data DD imagerel stbiw__write_dump_data
	DD	imagerel stbiw__write_dump_data+126
	DD	imagerel $unwind$stbiw__write_dump_data
$pdata$stbiw__write_hdr_scanline DD imagerel stbiw__write_hdr_scanline
	DD	imagerel stbiw__write_hdr_scanline+1547
	DD	imagerel $unwind$stbiw__write_hdr_scanline
$pdata$stbi_write_hdr_core DD imagerel stbi_write_hdr_core
	DD	imagerel stbi_write_hdr_core+587
	DD	imagerel $unwind$stbi_write_hdr_core
$pdata$stbiw__sbgrowf DD imagerel stbiw__sbgrowf
	DD	imagerel stbiw__sbgrowf+399
	DD	imagerel $unwind$stbiw__sbgrowf
$pdata$stbiw__zlib_flushf DD imagerel stbiw__zlib_flushf
	DD	imagerel stbiw__zlib_flushf+244
	DD	imagerel $unwind$stbiw__zlib_flushf
$pdata$stbiw__zlib_bitrev DD imagerel stbiw__zlib_bitrev
	DD	imagerel stbiw__zlib_bitrev+81
	DD	imagerel $unwind$stbiw__zlib_bitrev
$pdata$stbiw__zlib_countm DD imagerel stbiw__zlib_countm
	DD	imagerel stbiw__zlib_countm+96
	DD	imagerel $unwind$stbiw__zlib_countm
$pdata$stbiw__zhash DD imagerel stbiw__zhash
	DD	imagerel stbiw__zhash+180
	DD	imagerel $unwind$stbiw__zhash
$pdata$stbi_zlib_compress DD imagerel $LN94
	DD	imagerel $LN94+5829
	DD	imagerel $unwind$stbi_zlib_compress
$pdata$stbiw__crc32 DD imagerel stbiw__crc32
	DD	imagerel stbiw__crc32+108
	DD	imagerel $unwind$stbiw__crc32
$pdata$stbiw__wpcrc DD imagerel stbiw__wpcrc
	DD	imagerel stbiw__wpcrc+204
	DD	imagerel $unwind$stbiw__wpcrc
$pdata$stbiw__paeth DD imagerel stbiw__paeth
	DD	imagerel stbiw__paeth+172
	DD	imagerel $unwind$stbiw__paeth
$pdata$stbiw__encode_png_line DD imagerel stbiw__encode_png_line
	DD	imagerel stbiw__encode_png_line+1576
	DD	imagerel $unwind$stbiw__encode_png_line
$pdata$stbi_write_png_to_mem DD imagerel $LN23
	DD	imagerel $LN23+3123
	DD	imagerel $unwind$stbi_write_png_to_mem
$pdata$stbiw__jpg_writeBits DD imagerel stbiw__jpg_writeBits
	DD	imagerel stbiw__jpg_writeBits+230
	DD	imagerel $unwind$stbiw__jpg_writeBits
$pdata$stbiw__jpg_DCT DD imagerel stbiw__jpg_DCT
	DD	imagerel stbiw__jpg_DCT+837
	DD	imagerel $unwind$stbiw__jpg_DCT
$pdata$stbiw__jpg_calcBits DD imagerel stbiw__jpg_calcBits
	DD	imagerel stbiw__jpg_calcBits+229
	DD	imagerel $unwind$stbiw__jpg_calcBits
$pdata$stbiw__jpg_processDU DD imagerel stbiw__jpg_processDU
	DD	imagerel stbiw__jpg_processDU+1769
	DD	imagerel $unwind$stbiw__jpg_processDU
$pdata$stbi_write_jpg_core DD imagerel stbi_write_jpg_core
	DD	imagerel stbi_write_jpg_core+4687
	DD	imagerel $unwind$stbi_write_jpg_core
$pdata$stbtt_BakeFontBitmap DD imagerel $LN3
	DD	imagerel $LN3+111
	DD	imagerel $unwind$stbtt_BakeFontBitmap
$pdata$stbtt_GetBakedQuad DD imagerel $LN5
	DD	imagerel $LN5+562
	DD	imagerel $unwind$stbtt_GetBakedQuad
$pdata$stbtt_GetScaledFontVMetrics DD imagerel $LN5
	DD	imagerel $LN5+265
	DD	imagerel $unwind$stbtt_GetScaledFontVMetrics
$pdata$stbtt_PackBegin DD imagerel $LN10
	DD	imagerel $LN10+789
	DD	imagerel $unwind$stbtt_PackBegin
$pdata$stbtt_PackEnd DD imagerel $LN3
	DD	imagerel $LN3+191
	DD	imagerel $unwind$stbtt_PackEnd
$pdata$stbtt_PackFontRange DD imagerel $LN3
	DD	imagerel $LN3+125
	DD	imagerel $unwind$stbtt_PackFontRange
$pdata$stbtt_PackFontRanges DD imagerel $LN13
	DD	imagerel $LN13+758
	DD	imagerel $unwind$stbtt_PackFontRanges
$pdata$stbtt_PackSetOversampling DD imagerel $LN7
	DD	imagerel $LN7+129
	DD	imagerel $unwind$stbtt_PackSetOversampling
$pdata$stbtt_GetPackedQuad DD imagerel $LN5
	DD	imagerel $LN5+620
	DD	imagerel $unwind$stbtt_GetPackedQuad
$pdata$stbtt_PackFontRangesGatherRects DD imagerel $LN17
	DD	imagerel $LN17+832
	DD	imagerel $unwind$stbtt_PackFontRangesGatherRects
$pdata$stbtt_PackFontRangesPackRects DD imagerel $LN3
	DD	imagerel $LN3+48
	DD	imagerel $unwind$stbtt_PackFontRangesPackRects
$pdata$stbtt_PackFontRangesRenderIntoRects DD imagerel $LN22
	DD	imagerel $LN22+2037
	DD	imagerel $unwind$stbtt_PackFontRangesRenderIntoRects
$pdata$stbtt_GetNumberOfFonts DD imagerel $LN3
	DD	imagerel $LN3+24
	DD	imagerel $unwind$stbtt_GetNumberOfFonts
$pdata$stbtt_GetFontOffsetForIndex DD imagerel $LN3
	DD	imagerel $LN3+32
	DD	imagerel $unwind$stbtt_GetFontOffsetForIndex
$pdata$stbtt_InitFont DD imagerel $LN3
	DD	imagerel $LN3+44
	DD	imagerel $unwind$stbtt_InitFont
$pdata$stbtt_FindGlyphIndex DD imagerel $LN33
	DD	imagerel $LN33+1538
	DD	imagerel $unwind$stbtt_FindGlyphIndex
$pdata$stbtt_ScaleForPixelHeight DD imagerel $LN3
	DD	imagerel $LN3+116
	DD	imagerel $unwind$stbtt_ScaleForPixelHeight
$pdata$stbtt_ScaleForMappingEmToPixels DD imagerel $LN3
	DD	imagerel $LN3+77
	DD	imagerel $unwind$stbtt_ScaleForMappingEmToPixels
$pdata$stbtt_GetFontVMetrics DD imagerel $LN6
	DD	imagerel $LN6+170
	DD	imagerel $unwind$stbtt_GetFontVMetrics
$pdata$stbtt_GetFontVMetricsOS2 DD imagerel $LN7
	DD	imagerel $LN7+210
	DD	imagerel $unwind$stbtt_GetFontVMetricsOS2
$pdata$stbtt_GetFontBoundingBox DD imagerel $LN3
	DD	imagerel $LN3+185
	DD	imagerel $unwind$stbtt_GetFontBoundingBox
$pdata$stbtt_GetCodepointHMetrics DD imagerel $LN3
	DD	imagerel $LN3+64
	DD	imagerel $unwind$stbtt_GetCodepointHMetrics
$pdata$stbtt_GetCodepointKernAdvance DD imagerel $LN4
	DD	imagerel $LN4+100
	DD	imagerel $unwind$stbtt_GetCodepointKernAdvance
$pdata$stbtt_GetCodepointBox DD imagerel $LN3
	DD	imagerel $LN3+84
	DD	imagerel $unwind$stbtt_GetCodepointBox
$pdata$stbtt_GetGlyphHMetrics DD imagerel $LN9
	DD	imagerel $LN9+357
	DD	imagerel $unwind$stbtt_GetGlyphHMetrics
$pdata$stbtt_GetGlyphKernAdvance DD imagerel $LN6
	DD	imagerel $LN6+121
	DD	imagerel $unwind$stbtt_GetGlyphKernAdvance
$pdata$stbtt_GetGlyphBox DD imagerel $LN10
	DD	imagerel $LN10+297
	DD	imagerel $unwind$stbtt_GetGlyphBox
$pdata$stbtt_GetKerningTableLength DD imagerel $LN6
	DD	imagerel $LN6+130
	DD	imagerel $unwind$stbtt_GetKerningTableLength
$pdata$stbtt_GetKerningTable DD imagerel $LN10
	DD	imagerel $LN10+349
	DD	imagerel $unwind$stbtt_GetKerningTable
$pdata$stbtt_IsGlyphEmpty DD imagerel $LN9
	DD	imagerel $LN9+185
	DD	imagerel $unwind$stbtt_IsGlyphEmpty
$pdata$stbtt_GetCodepointShape DD imagerel $LN3
	DD	imagerel $LN3+54
	DD	imagerel $unwind$stbtt_GetCodepointShape
$pdata$stbtt_GetGlyphShape DD imagerel $LN5
	DD	imagerel $LN5+76
	DD	imagerel $unwind$stbtt_GetGlyphShape
$pdata$stbtt_FreeShape DD imagerel $LN3
	DD	imagerel $LN3+101
	DD	imagerel $unwind$stbtt_FreeShape
$pdata$stbtt_FindSVGDoc DD imagerel $LN7
	DD	imagerel $LN7+200
	DD	imagerel $unwind$stbtt_FindSVGDoc
$pdata$stbtt_GetCodepointSVG DD imagerel $LN3
	DD	imagerel $LN3+54
	DD	imagerel $unwind$stbtt_GetCodepointSVG
$pdata$stbtt_GetGlyphSVG DD imagerel $LN6
	DD	imagerel $LN6+162
	DD	imagerel $unwind$stbtt_GetGlyphSVG
$pdata$stbtt_FreeBitmap DD imagerel $LN3
	DD	imagerel $LN3+101
	DD	imagerel $unwind$stbtt_FreeBitmap
$pdata$stbtt_GetCodepointBitmap DD imagerel $LN3
	DD	imagerel $LN3+125
	DD	imagerel $unwind$stbtt_GetCodepointBitmap
$pdata$stbtt_GetCodepointBitmapSubpixel DD imagerel $LN3
	DD	imagerel $LN3+148
	DD	imagerel $unwind$stbtt_GetCodepointBitmapSubpixel
$pdata$stbtt_MakeCodepointBitmap DD imagerel $LN3
	DD	imagerel $LN3+124
	DD	imagerel $unwind$stbtt_MakeCodepointBitmap
$pdata$stbtt_MakeCodepointBitmapSubpixel DD imagerel $LN3
	DD	imagerel $LN3+146
	DD	imagerel $unwind$stbtt_MakeCodepointBitmapSubpixel
$pdata$stbtt_MakeCodepointBitmapSubpixelPrefilter DD imagerel $LN3
	DD	imagerel $LN3+209
	DD	imagerel $unwind$stbtt_MakeCodepointBitmapSubpixelPrefilter
$pdata$stbtt_GetCodepointBitmapBox DD imagerel $LN3
	DD	imagerel $LN3+126
	DD	imagerel $unwind$stbtt_GetCodepointBitmapBox
$pdata$stbtt_GetCodepointBitmapBoxSubpixel DD imagerel $LN3
	DD	imagerel $LN3+150
	DD	imagerel $unwind$stbtt_GetCodepointBitmapBoxSubpixel
$pdata$stbtt_GetGlyphBitmap DD imagerel $LN3
	DD	imagerel $LN3+125
	DD	imagerel $unwind$stbtt_GetGlyphBitmap
$pdata$stbtt_GetGlyphBitmapSubpixel DD imagerel $LN12
	DD	imagerel $LN12+919
	DD	imagerel $unwind$stbtt_GetGlyphBitmapSubpixel
$pdata$stbtt_MakeGlyphBitmap DD imagerel $LN3
	DD	imagerel $LN3+124
	DD	imagerel $unwind$stbtt_MakeGlyphBitmap
$pdata$stbtt_MakeGlyphBitmapSubpixel DD imagerel $LN4
	DD	imagerel $LN4+460
	DD	imagerel $unwind$stbtt_MakeGlyphBitmapSubpixel
$pdata$stbtt_MakeGlyphBitmapSubpixelPrefilter DD imagerel $LN5
	DD	imagerel $LN5+310
	DD	imagerel $unwind$stbtt_MakeGlyphBitmapSubpixelPrefilter
$pdata$stbtt_GetGlyphBitmapBox DD imagerel $LN3
	DD	imagerel $LN3+126
	DD	imagerel $unwind$stbtt_GetGlyphBitmapBox
$pdata$stbtt_GetGlyphBitmapBoxSubpixel DD imagerel $LN13
	DD	imagerel $LN13+415
	DD	imagerel $unwind$stbtt_GetGlyphBitmapBoxSubpixel
$pdata$stbtt_Rasterize DD imagerel $LN6
	DD	imagerel $LN6+505
	DD	imagerel $unwind$stbtt_Rasterize
$pdata$stbtt_FreeSDF DD imagerel $LN3
	DD	imagerel $LN3+101
	DD	imagerel $unwind$stbtt_FreeSDF
$pdata$stbtt_GetGlyphSDF DD imagerel $LN83
	DD	imagerel $LN83+6809
	DD	imagerel $unwind$stbtt_GetGlyphSDF
$pdata$stbtt_GetCodepointSDF DD imagerel $LN3
	DD	imagerel $LN3+147
	DD	imagerel $unwind$stbtt_GetCodepointSDF
$pdata$stbtt_FindMatchingFont DD imagerel $LN3
	DD	imagerel $LN3+44
	DD	imagerel $unwind$stbtt_FindMatchingFont
$pdata$stbtt_CompareUTF8toUTF16_bigendian DD imagerel $LN3
	DD	imagerel $LN3+52
	DD	imagerel $unwind$stbtt_CompareUTF8toUTF16_bigendian
$pdata$stbtt_GetFontNameString DD imagerel $LN8
	DD	imagerel $LN8+445
	DD	imagerel $unwind$stbtt_GetFontNameString
$pdata$stbtt__buf_get8 DD imagerel stbtt__buf_get8
	DD	imagerel stbtt__buf_get8+82
	DD	imagerel $unwind$stbtt__buf_get8
$pdata$stbtt__buf_seek DD imagerel stbtt__buf_seek
	DD	imagerel stbtt__buf_seek+121
	DD	imagerel $unwind$stbtt__buf_seek
$pdata$stbtt__buf_skip DD imagerel stbtt__buf_skip
	DD	imagerel stbtt__buf_skip+42
	DD	imagerel $unwind$stbtt__buf_skip
$pdata$stbtt__buf_get DD imagerel stbtt__buf_get
	DD	imagerel stbtt__buf_get+139
	DD	imagerel $unwind$stbtt__buf_get
$pdata$stbtt__new_buf DD imagerel stbtt__new_buf
	DD	imagerel stbtt__new_buf+117
	DD	imagerel $unwind$stbtt__new_buf
$pdata$stbtt__buf_range DD imagerel stbtt__buf_range
	DD	imagerel stbtt__buf_range+192
	DD	imagerel $unwind$stbtt__buf_range
$pdata$stbtt__cff_get_index DD imagerel stbtt__cff_get_index
	DD	imagerel stbtt__cff_get_index+225
	DD	imagerel $unwind$stbtt__cff_get_index
$pdata$stbtt__cff_int DD imagerel stbtt__cff_int
	DD	imagerel stbtt__cff_int+288
	DD	imagerel $unwind$stbtt__cff_int
$pdata$stbtt__cff_skip_operand DD imagerel stbtt__cff_skip_operand
	DD	imagerel stbtt__cff_skip_operand+162
	DD	imagerel $unwind$stbtt__cff_skip_operand
$pdata$stbtt__dict_get DD imagerel stbtt__dict_get
	DD	imagerel stbtt__dict_get+277
	DD	imagerel $unwind$stbtt__dict_get
$pdata$stbtt__dict_get_ints DD imagerel stbtt__dict_get_ints
	DD	imagerel stbtt__dict_get_ints+141
	DD	imagerel $unwind$stbtt__dict_get_ints
$pdata$stbtt__cff_index_count DD imagerel stbtt__cff_index_count
	DD	imagerel stbtt__cff_index_count+41
	DD	imagerel $unwind$stbtt__cff_index_count
$pdata$stbtt__cff_index_get DD imagerel stbtt__cff_index_get
	DD	imagerel stbtt__cff_index_get+290
	DD	imagerel $unwind$stbtt__cff_index_get
$pdata$stbtt__find_table DD imagerel stbtt__find_table
	DD	imagerel stbtt__find_table+349
	DD	imagerel $unwind$stbtt__find_table
$pdata$stbtt_GetFontOffsetForIndex_internal DD imagerel stbtt_GetFontOffsetForIndex_internal
	DD	imagerel stbtt_GetFontOffsetForIndex_internal+366
	DD	imagerel $unwind$stbtt_GetFontOffsetForIndex_internal
$pdata$stbtt_GetNumberOfFonts_internal DD imagerel stbtt_GetNumberOfFonts_internal
	DD	imagerel stbtt_GetNumberOfFonts_internal+283
	DD	imagerel $unwind$stbtt_GetNumberOfFonts_internal
$pdata$stbtt__get_subrs DD imagerel stbtt__get_subrs
	DD	imagerel stbtt__get_subrs+381
	DD	imagerel $unwind$stbtt__get_subrs
$pdata$stbtt__get_svg DD imagerel stbtt__get_svg
	DD	imagerel stbtt__get_svg+137
	DD	imagerel $unwind$stbtt__get_svg
$pdata$stbtt_InitFont_internal DD imagerel stbtt_InitFont_internal
	DD	imagerel stbtt_InitFont_internal+1882
	DD	imagerel $unwind$stbtt_InitFont_internal
$pdata$stbtt__GetGlyfOffset DD imagerel stbtt__GetGlyfOffset
	DD	imagerel stbtt__GetGlyfOffset+392
	DD	imagerel $unwind$stbtt__GetGlyfOffset
$pdata$stbtt__GetGlyphInfoT2 DD imagerel stbtt__GetGlyphInfoT2
	DD	imagerel stbtt__GetGlyphInfoT2+387
	DD	imagerel $unwind$stbtt__GetGlyphInfoT2
$pdata$stbtt__close_shape DD imagerel stbtt__close_shape
	DD	imagerel stbtt__close_shape+416
	DD	imagerel $unwind$stbtt__close_shape
$pdata$stbtt__GetGlyphShapeTT DD imagerel stbtt__GetGlyphShapeTT
	DD	imagerel stbtt__GetGlyphShapeTT+5472
	DD	imagerel $unwind$stbtt__GetGlyphShapeTT
$pdata$stbtt__csctx_v DD imagerel stbtt__csctx_v
	DD	imagerel stbtt__csctx_v+250
	DD	imagerel $unwind$stbtt__csctx_v
$pdata$stbtt__csctx_close_shape DD imagerel stbtt__csctx_close_shape
	DD	imagerel stbtt__csctx_close_shape+130
	DD	imagerel $unwind$stbtt__csctx_close_shape
$pdata$stbtt__csctx_rmove_to DD imagerel stbtt__csctx_rmove_to
	DD	imagerel stbtt__csctx_rmove_to+214
	DD	imagerel $unwind$stbtt__csctx_rmove_to
$pdata$stbtt__csctx_rline_to DD imagerel stbtt__csctx_rline_to
	DD	imagerel stbtt__csctx_rline_to+148
	DD	imagerel $unwind$stbtt__csctx_rline_to
$pdata$stbtt__csctx_rccurve_to DD imagerel stbtt__csctx_rccurve_to
	DD	imagerel stbtt__csctx_rccurve_to+244
	DD	imagerel $unwind$stbtt__csctx_rccurve_to
$pdata$stbtt__get_subr DD imagerel stbtt__get_subr
	DD	imagerel stbtt__get_subr+251
	DD	imagerel $unwind$stbtt__get_subr
$pdata$stbtt__cid_get_glyph_subrs DD imagerel stbtt__cid_get_glyph_subrs
	DD	imagerel stbtt__cid_get_glyph_subrs+480
	DD	imagerel $unwind$stbtt__cid_get_glyph_subrs
$pdata$stbtt__run_charstring DD imagerel stbtt__run_charstring
	DD	imagerel stbtt__run_charstring+5036
	DD	imagerel $unwind$stbtt__run_charstring
$pdata$stbtt__GetGlyphShapeT2 DD imagerel stbtt__GetGlyphShapeT2
	DD	imagerel stbtt__GetGlyphShapeT2+516
	DD	imagerel $unwind$stbtt__GetGlyphShapeT2
$pdata$stbtt__GetGlyphKernInfoAdvance DD imagerel stbtt__GetGlyphKernInfoAdvance
	DD	imagerel stbtt__GetGlyphKernInfoAdvance+313
	DD	imagerel $unwind$stbtt__GetGlyphKernInfoAdvance
$pdata$stbtt__GetCoverageIndex DD imagerel stbtt__GetCoverageIndex
	DD	imagerel stbtt__GetCoverageIndex+553
	DD	imagerel $unwind$stbtt__GetCoverageIndex
$pdata$stbtt__GetGlyphClass DD imagerel stbtt__GetGlyphClass
	DD	imagerel stbtt__GetGlyphClass+472
	DD	imagerel $unwind$stbtt__GetGlyphClass
$pdata$stbtt__GetGlyphGPOSInfoAdvance DD imagerel stbtt__GetGlyphGPOSInfoAdvance
	DD	imagerel stbtt__GetGlyphGPOSInfoAdvance+1552
	DD	imagerel $unwind$stbtt__GetGlyphGPOSInfoAdvance
$pdata$stbtt__hheap_alloc DD imagerel stbtt__hheap_alloc
	DD	imagerel stbtt__hheap_alloc+433
	DD	imagerel $unwind$stbtt__hheap_alloc
$pdata$stbtt__hheap_cleanup DD imagerel stbtt__hheap_cleanup
	DD	imagerel stbtt__hheap_cleanup+153
	DD	imagerel $unwind$stbtt__hheap_cleanup
$pdata$stbtt__new_active DD imagerel stbtt__new_active
	DD	imagerel stbtt__new_active+439
	DD	imagerel $unwind$stbtt__new_active
$pdata$stbtt__handle_clipped_edge DD imagerel stbtt__handle_clipped_edge
	DD	imagerel stbtt__handle_clipped_edge+1085
	DD	imagerel $unwind$stbtt__handle_clipped_edge
$pdata$stbtt__sized_trapezoid_area DD imagerel stbtt__sized_trapezoid_area
	DD	imagerel stbtt__sized_trapezoid_area+137
	DD	imagerel $unwind$stbtt__sized_trapezoid_area
$pdata$stbtt__position_trapezoid_area DD imagerel stbtt__position_trapezoid_area
	DD	imagerel stbtt__position_trapezoid_area+71
	DD	imagerel $unwind$stbtt__position_trapezoid_area
$pdata$stbtt__fill_active_edges_new DD imagerel stbtt__fill_active_edges_new
	DD	imagerel stbtt__fill_active_edges_new+4040
	DD	imagerel $unwind$stbtt__fill_active_edges_new
$pdata$stbtt__rasterize_sorted_edges DD imagerel stbtt__rasterize_sorted_edges
	DD	imagerel stbtt__rasterize_sorted_edges+1450
	DD	imagerel $unwind$stbtt__rasterize_sorted_edges
$pdata$stbtt__sort_edges_ins_sort DD imagerel stbtt__sort_edges_ins_sort
	DD	imagerel stbtt__sort_edges_ins_sort+340
	DD	imagerel $unwind$stbtt__sort_edges_ins_sort
$pdata$stbtt__sort_edges_quicksort DD imagerel stbtt__sort_edges_quicksort
	DD	imagerel stbtt__sort_edges_quicksort+1114
	DD	imagerel $unwind$stbtt__sort_edges_quicksort
$pdata$stbtt__sort_edges DD imagerel stbtt__sort_edges
	DD	imagerel stbtt__sort_edges+46
	DD	imagerel $unwind$stbtt__sort_edges
$pdata$stbtt__rasterize DD imagerel stbtt__rasterize
	DD	imagerel stbtt__rasterize+1154
	DD	imagerel $unwind$stbtt__rasterize
$pdata$stbtt__tesselate_curve DD imagerel stbtt__tesselate_curve
	DD	imagerel stbtt__tesselate_curve+637
	DD	imagerel $unwind$stbtt__tesselate_curve
$pdata$stbtt__tesselate_cubic DD imagerel stbtt__tesselate_cubic
	DD	imagerel stbtt__tesselate_cubic+1345
	DD	imagerel $unwind$stbtt__tesselate_cubic
$pdata$stbtt_FlattenCurves DD imagerel stbtt_FlattenCurves
	DD	imagerel stbtt_FlattenCurves+1815
	DD	imagerel $unwind$stbtt_FlattenCurves
$pdata$stbtt_BakeFontBitmap_internal DD imagerel stbtt_BakeFontBitmap_internal
	DD	imagerel stbtt_BakeFontBitmap_internal+927
	DD	imagerel $unwind$stbtt_BakeFontBitmap_internal
$pdata$stbrp_pack_rects DD imagerel stbrp_pack_rects
	DD	imagerel stbrp_pack_rects+384
	DD	imagerel $unwind$stbrp_pack_rects
$pdata$stbtt__h_prefilter DD imagerel stbtt__h_prefilter
	DD	imagerel stbtt__h_prefilter+1090
	DD	imagerel $unwind$stbtt__h_prefilter
$pdata$stbtt__v_prefilter DD imagerel stbtt__v_prefilter
	DD	imagerel stbtt__v_prefilter+1213
	DD	imagerel $unwind$stbtt__v_prefilter
$pdata$stbtt__ray_intersect_bezier DD imagerel stbtt__ray_intersect_bezier
	DD	imagerel stbtt__ray_intersect_bezier+1800
	DD	imagerel $unwind$stbtt__ray_intersect_bezier
$pdata$equal DD	imagerel equal
	DD	imagerel equal+122
	DD	imagerel $unwind$equal
$pdata$stbtt__compute_crossings_x DD imagerel stbtt__compute_crossings_x
	DD	imagerel stbtt__compute_crossings_x+2325
	DD	imagerel $unwind$stbtt__compute_crossings_x
$pdata$stbtt__cuberoot DD imagerel stbtt__cuberoot
	DD	imagerel stbtt__cuberoot+93
	DD	imagerel $unwind$stbtt__cuberoot
$pdata$stbtt__solve_cubic DD imagerel stbtt__solve_cubic
	DD	imagerel stbtt__solve_cubic+769
	DD	imagerel $unwind$stbtt__solve_cubic
$pdata$stbtt__CompareUTF8toUTF16_bigendian_prefix DD imagerel stbtt__CompareUTF8toUTF16_bigendian_prefix
	DD	imagerel stbtt__CompareUTF8toUTF16_bigendian_prefix+1079
	DD	imagerel $unwind$stbtt__CompareUTF8toUTF16_bigendian_prefix
$pdata$stbtt_CompareUTF8toUTF16_bigendian_internal DD imagerel stbtt_CompareUTF8toUTF16_bigendian_internal
	DD	imagerel stbtt_CompareUTF8toUTF16_bigendian_internal+80
	DD	imagerel $unwind$stbtt_CompareUTF8toUTF16_bigendian_internal
$pdata$stbtt__matchpair DD imagerel stbtt__matchpair
	DD	imagerel stbtt__matchpair+874
	DD	imagerel $unwind$stbtt__matchpair
$pdata$stbtt__matches DD imagerel stbtt__matches
	DD	imagerel stbtt__matches+526
	DD	imagerel $unwind$stbtt__matches
$pdata$stbtt_FindMatchingFont_internal DD imagerel stbtt_FindMatchingFont_internal
	DD	imagerel stbtt_FindMatchingFont_internal+111
	DD	imagerel $unwind$stbtt_FindMatchingFont_internal
$pdata$rxborrow_resource DD imagerel $LN3
	DD	imagerel $LN3+71
	DD	imagerel $unwind$rxborrow_resource
$pdata$rxreturn_resource DD imagerel $LN3
	DD	imagerel $LN3+42
	DD	imagerel $unwind$rxreturn_resource
$pdata$rxreturn DD imagerel $LN3
	DD	imagerel $LN3+27
	DD	imagerel $unwind$rxreturn
$pdata$rxborrow_texture DD imagerel $LN3
	DD	imagerel $LN3+146
	DD	imagerel $unwind$rxborrow_texture
$pdata$rxcreate_texture DD imagerel $LN3
	DD	imagerel $LN3+372
	DD	imagerel $unwind$rxcreate_texture
$pdata$rxload_texture DD imagerel $LN3
	DD	imagerel $LN3+428
	DD	imagerel $unwind$rxload_texture
$pdata$rxload_texture_file DD imagerel $LN3
	DD	imagerel $LN3+175
	DD	imagerel $unwind$rxload_texture_file
$pdata$rxload_font DD imagerel $LN14
	DD	imagerel $LN14+832
	DD	imagerel $unwind$rxload_font
$pdata$rxdraw_texture_ex DD imagerel $LN3
	DD	imagerel $LN3+896
	DD	imagerel $unwind$rxdraw_texture_ex
$pdata$rxdraw_texture DD imagerel $LN3
	DD	imagerel $LN3+192
	DD	imagerel $unwind$rxdraw_texture
$pdata$rxdraw_text DD imagerel $LN6
	DD	imagerel $LN6+638
	DD	imagerel $unwind$rxdraw_text
$pdata$rxwindow DD imagerel $LN5
	DD	imagerel $LN5+180
	DD	imagerel $unwind$rxwindow
$pdata$rxtick DD imagerel $LN9
	DD	imagerel $LN9+641
	DD	imagerel $unwind$rxtick
$pdata$rxresize_indexbuffer DD imagerel $LN4
	DD	imagerel $LN4+155
	DD	imagerel $unwind$rxresize_indexbuffer
$pdata$rxresize_vertexbuffer DD imagerel $LN4
	DD	imagerel $LN4+155
	DD	imagerel $unwind$rxresize_vertexbuffer
$pdata$rxwindow_callback_win32 DD imagerel $LN3
	DD	imagerel $LN3+53
	DD	imagerel $unwind$rxwindow_callback_win32
$pdata$rxinit DD imagerel $LN7
	DD	imagerel $LN7+3913
	DD	imagerel $unwind$rxinit
$pdata$main DD	imagerel $LN6
	DD	imagerel $LN6+113
	DD	imagerel $unwind$main
pdata	ENDS
;	COMDAT __xmm@fa7efa7efa7efa7efa7efa7efa7efa7e
CONST	SEGMENT
__xmm@fa7efa7efa7efa7efa7efa7efa7efa7e DB '~', 0faH, '~', 0faH, '~', 0faH
	DB	'~', 0faH, '~', 0faH, '~', 0faH, '~', 0faH, '~', 0faH
CONST	ENDS
;	COMDAT __xmm@f9c31a9df9c31a9df9c31a9df9c31a9d
CONST	SEGMENT
__xmm@f9c31a9df9c31a9df9c31a9df9c31a9d DB 09dH, 01aH, 0c3H, 0f9H, 09dH, 01aH
	DB	0c3H, 0f9H, 09dH, 01aH, 0c3H, 0f9H, 09dH, 01aH, 0c3H, 0f9H
CONST	ENDS
;	COMDAT __xmm@f493f493f493f493f493f493f493f493
CONST	SEGMENT
__xmm@f493f493f493f493f493f493f493f493 DB 093H, 0f4H, 093H, 0f4H, 093H, 0f4H
	DB	093H, 0f4H, 093H, 0f4H, 093H, 0f4H, 093H, 0f4H, 093H, 0f4H
CONST	ENDS
;	COMDAT __xmm@eb1a08a9eb1a08a9eb1a08a9eb1a08a9
CONST	SEGMENT
__xmm@eb1a08a9eb1a08a9eb1a08a9eb1a08a9 DB 0a9H, 08H, 01aH, 0ebH, 0a9H, 08H
	DB	01aH, 0ebH, 0a9H, 08H, 01aH, 0ebH, 0a9H, 08H, 01aH, 0ebH
CONST	ENDS
;	COMDAT __xmm@e9cf12d0e9cf12d0e9cf12d0e9cf12d0
CONST	SEGMENT
__xmm@e9cf12d0e9cf12d0e9cf12d0e9cf12d0 DB 0d0H, 012H, 0cfH, 0e9H, 0d0H, 012H
	DB	0cfH, 0e9H, 0d0H, 012H, 0cfH, 0e9H, 0d0H, 012H, 0cfH, 0e9H
CONST	ENDS
;	COMDAT __xmm@e09ee565e09ee565e09ee565e09ee565
CONST	SEGMENT
__xmm@e09ee565e09ee565e09ee565e09ee565 DB 'e', 0e5H, 09eH, 0e0H, 'e', 0e5H
	DB	09eH, 0e0H, 'e', 0e5H, 09eH, 0e0H, 'e', 0e5H, 09eH, 0e0H
CONST	ENDS
;	COMDAT __xmm@80808080808080808080808080808080
CONST	SEGMENT
__xmm@80808080808080808080808080808080 DB 080H, 080H, 080H, 080H, 080H, 080H
	DB	080H, 080H, 080H, 080H, 080H, 080H, 080H, 080H, 080H, 080H
CONST	ENDS
;	COMDAT __xmm@80000000800000008000000080000000
CONST	SEGMENT
__xmm@80000000800000008000000080000000 DB 00H, 00H, 00H, 080H, 00H, 00H, 00H
	DB	080H, 00H, 00H, 00H, 080H, 00H, 00H, 00H, 080H
CONST	ENDS
;	COMDAT __xmm@80000000000000008000000000000000
CONST	SEGMENT
__xmm@80000000000000008000000000000000 DB 00H, 00H, 00H, 00H, 00H, 00H, 00H
	DB	080H, 00H, 00H, 00H, 00H, 00H, 00H, 00H, 080H
CONST	ENDS
;	COMDAT __xmm@1c5a1c5a1c5a1c5a1c5a1c5a1c5a1c5a
CONST	SEGMENT
__xmm@1c5a1c5a1c5a1c5a1c5a1c5a1c5a1c5a DB 'Z', 01cH, 'Z', 01cH, 'Z', 01cH
	DB	'Z', 01cH, 'Z', 01cH, 'Z', 01cH, 'Z', 01cH, 'Z', 01cH
CONST	ENDS
;	COMDAT __xmm@166f166f166f166f166f166f166f166f
CONST	SEGMENT
__xmm@166f166f166f166f166f166f166f166f DB 'o', 016H, 'o', 016H, 'o', 016H
	DB	'o', 016H, 'o', 016H, 'o', 016H, 'o', 016H, 'o', 016H
CONST	ENDS
;	COMDAT __xmm@12d0046b12d0046b12d0046b12d0046b
CONST	SEGMENT
__xmm@12d0046b12d0046b12d0046b12d0046b DB 'k', 04H, 0d0H, 012H, 'k', 04H, 0d0H
	DB	012H, 'k', 04H, 0d0H, 012H, 'k', 04H, 0d0H, 012H
CONST	ENDS
;	COMDAT __xmm@11c8f9c311c8f9c311c8f9c311c8f9c3
CONST	SEGMENT
__xmm@11c8f9c311c8f9c311c8f9c311c8f9c3 DB 0c3H, 0f9H, 0c8H, 011H, 0c3H, 0f9H
	DB	0c8H, 011H, 0c3H, 0f9H, 0c8H, 011H, 0c3H, 0f9H, 0c8H, 011H
CONST	ENDS
;	COMDAT __xmm@11c8e09e11c8e09e11c8e09e11c8e09e
CONST	SEGMENT
__xmm@11c8e09e11c8e09e11c8e09e11c8e09e DB 09eH, 0e0H, 0c8H, 011H, 09eH, 0e0H
	DB	0c8H, 011H, 09eH, 0e0H, 0c8H, 011H, 09eH, 0e0H, 0c8H, 011H
CONST	ENDS
;	COMDAT __xmm@08a914e808a914e808a914e808a914e8
CONST	SEGMENT
__xmm@08a914e808a914e808a914e808a914e8 DB 0e8H, 014H, 0a9H, 08H, 0e8H, 014H
	DB	0a9H, 08H, 0e8H, 014H, 0a9H, 08H, 0e8H, 014H, 0a9H, 08H
CONST	ENDS
;	COMDAT __xmm@01010000010100000101000001010000
CONST	SEGMENT
__xmm@01010000010100000101000001010000 DB 00H, 00H, 01H, 01H, 00H, 00H, 01H
	DB	01H, 00H, 00H, 01H, 01H, 00H, 00H, 01H, 01H
CONST	ENDS
;	COMDAT __xmm@00ff00ff00ff00ff00ff00ff00ff00ff
CONST	SEGMENT
__xmm@00ff00ff00ff00ff00ff00ff00ff00ff DB 0ffH, 00H, 0ffH, 00H, 0ffH, 00H
	DB	0ffH, 00H, 0ffH, 00H, 0ffH, 00H, 0ffH, 00H, 0ffH, 00H
CONST	ENDS
;	COMDAT __xmm@00080008000800080008000800080008
CONST	SEGMENT
__xmm@00080008000800080008000800080008 DB 08H, 00H, 08H, 00H, 08H, 00H, 08H
	DB	00H, 08H, 00H, 08H, 00H, 08H, 00H, 08H, 00H
CONST	ENDS
;	COMDAT __xmm@00000200000002000000020000000200
CONST	SEGMENT
__xmm@00000200000002000000020000000200 DB 00H, 02H, 00H, 00H, 00H, 02H, 00H
	DB	00H, 00H, 02H, 00H, 00H, 00H, 02H, 00H, 00H
CONST	ENDS
;	COMDAT __real@c2700000
CONST	SEGMENT
__real@c2700000 DD 0c2700000r			; -60
CONST	ENDS
;	COMDAT __real@c1d80000
CONST	SEGMENT
__real@c1d80000 DD 0c1d80000r			; -27
CONST	ENDS
;	COMDAT __real@c1400000
CONST	SEGMENT
__real@c1400000 DD 0c1400000r			; -12
CONST	ENDS
;	COMDAT __real@c0000000
CONST	SEGMENT
__real@c0000000 DD 0c0000000r			; -2
CONST	ENDS
;	COMDAT __real@bf800000
CONST	SEGMENT
__real@bf800000 DD 0bf800000r			; -1
CONST	ENDS
;	COMDAT __real@bf000000
CONST	SEGMENT
__real@bf000000 DD 0bf000000r			; -0.5
CONST	ENDS
;	COMDAT __real@be2cca2e
CONST	SEGMENT
__real@be2cca2e DD 0be2cca2er			; -0.16874
CONST	ENDS
;	COMDAT __real@497423f0
CONST	SEGMENT
__real@497423f0 DD 0497423f0r			; 999999
CONST	ENDS
;	COMDAT __real@47800000
CONST	SEGMENT
__real@47800000 DD 047800000r			; 65536
CONST	ENDS
;	COMDAT __real@477fff00
CONST	SEGMENT
__real@477fff00 DD 0477fff00r			; 65535
CONST	ENDS
;	COMDAT __real@46800000
CONST	SEGMENT
__real@46800000 DD 046800000r			; 16384
CONST	ENDS
;	COMDAT __real@43800000
CONST	SEGMENT
__real@43800000 DD 043800000r			; 256
CONST	ENDS
;	COMDAT __real@437f0000
CONST	SEGMENT
__real@437f0000 DD 0437f0000r			; 255
CONST	ENDS
;	COMDAT __real@43000000
CONST	SEGMENT
__real@43000000 DD 043000000r			; 128
CONST	ENDS
;	COMDAT __real@42800000
CONST	SEGMENT
__real@42800000 DD 042800000r			; 64
CONST	ENDS
;	COMDAT __real@42100000
CONST	SEGMENT
__real@42100000 DD 042100000r			; 36
CONST	ENDS
;	COMDAT __real@42000000
CONST	SEGMENT
__real@42000000 DD 042000000r			; 32
CONST	ENDS
;	COMDAT __real@41d80000
CONST	SEGMENT
__real@41d80000 DD 041d80000r			; 27
CONST	ENDS
;	COMDAT __real@41a80000
CONST	SEGMENT
__real@41a80000 DD 041a80000r			; 21
CONST	ENDS
;	COMDAT __real@41900000
CONST	SEGMENT
__real@41900000 DD 041900000r			; 18
CONST	ENDS
;	COMDAT __real@41800000
CONST	SEGMENT
__real@41800000 DD 041800000r			; 16
CONST	ENDS
;	COMDAT __real@414eb852
CONST	SEGMENT
__real@414eb852 DD 0414eb852r			; 12.92
CONST	ENDS
;	COMDAT __real@41100000
CONST	SEGMENT
__real@41100000 DD 041100000r			; 9
CONST	ENDS
;	COMDAT __real@41000000
CONST	SEGMENT
__real@41000000 DD 041000000r			; 8
CONST	ENDS
;	COMDAT __real@40e00000
CONST	SEGMENT
__real@40e00000 DD 040e00000r			; 7
CONST	ENDS
;	COMDAT __real@40c00000
CONST	SEGMENT
__real@40c00000 DD 040c00000r			; 6
CONST	ENDS
;	COMDAT __real@4090000000000000
CONST	SEGMENT
__real@4090000000000000 DQ 04090000000000000r	; 1024
CONST	ENDS
;	COMDAT __real@408f400000000000
CONST	SEGMENT
__real@408f400000000000 DQ 0408f400000000000r	; 1000
CONST	ENDS
;	COMDAT __real@40800000
CONST	SEGMENT
__real@40800000 DD 040800000r			; 4
CONST	ENDS
;	COMDAT __real@40400000
CONST	SEGMENT
__real@40400000 DD 040400000r			; 3
CONST	ENDS
;	COMDAT __real@40200000
CONST	SEGMENT
__real@40200000 DD 040200000r			; 2.5
CONST	ENDS
;	COMDAT __real@4003333340000000
CONST	SEGMENT
__real@4003333340000000 DQ 04003333340000000r	; 2.4
CONST	ENDS
;	COMDAT __real@4000000000000000
CONST	SEGMENT
__real@4000000000000000 DQ 04000000000000000r	; 2
CONST	ENDS
;	COMDAT __real@40000000
CONST	SEGMENT
__real@40000000 DD 040000000r			; 2
CONST	ENDS
;	COMDAT __real@3ff921fafc8b007a
CONST	SEGMENT
__real@3ff921fafc8b007a DQ 03ff921fafc8b007ar	; 1.5708
CONST	ENDS
;	COMDAT __real@3ff028f5c0000000
CONST	SEGMENT
__real@3ff028f5c0000000 DQ 03ff028f5c0000000r	; 1.01
CONST	ENDS
;	COMDAT __real@3ff0000000000000
CONST	SEGMENT
__real@3ff0000000000000 DQ 03ff0000000000000r	; 1
CONST	ENDS
;	COMDAT __real@3feccccccccccccd
CONST	SEGMENT
__real@3feccccccccccccd DQ 03feccccccccccccdr	; 0.9
CONST	ENDS
;	COMDAT __real@3fe0000000000000
CONST	SEGMENT
__real@3fe0000000000000 DQ 03fe0000000000000r	; 0.5
CONST	ENDS
;	COMDAT __real@3fddb3d7
CONST	SEGMENT
__real@3fddb3d7 DD 03fddb3d7r			; 1.73205
CONST	ENDS
;	COMDAT __real@3fdaaaaaa0000000
CONST	SEGMENT
__real@3fdaaaaaa0000000 DQ 03fdaaaaaa0000000r	; 0.416667
CONST	ENDS
;	COMDAT __real@3fd5555560000000
CONST	SEGMENT
__real@3fd5555560000000 DQ 03fd5555560000000r	; 0.333333
CONST	ENDS
;	COMDAT __real@3fc00000
CONST	SEGMENT
__real@3fc00000 DD 03fc00000r			; 1.5
CONST	ENDS
;	COMDAT __real@3fa73d75
CONST	SEGMENT
__real@3fa73d75 DD 03fa73d75r			; 1.30656
CONST	ENDS
;	COMDAT __real@3f8ccccd
CONST	SEGMENT
__real@3f8ccccd DD 03f8ccccdr			; 1.1
CONST	ENDS
;	COMDAT __real@3f870a3d
CONST	SEGMENT
__real@3f870a3d DD 03f870a3dr			; 1.055
CONST	ENDS
;	COMDAT __real@3f800000
CONST	SEGMENT
__real@3f800000 DD 03f800000r			; 1
CONST	ENDS
;	COMDAT __real@3f7d70a4
CONST	SEGMENT
__real@3f7d70a4 DD 03f7d70a4r			; 0.99
CONST	ENDS
;	COMDAT __real@3f666666
CONST	SEGMENT
__real@3f666666 DD 03f666666r			; 0.9
CONST	ENDS
;	COMDAT __real@3f3504f3
CONST	SEGMENT
__real@3f3504f3 DD 03f3504f3r			; 0.707107
CONST	ENDS
;	COMDAT __real@3f1645a2
CONST	SEGMENT
__real@3f1645a2 DD 03f1645a2r			; 0.587
CONST	ENDS
;	COMDAT __real@3f0a8bd4
CONST	SEGMENT
__real@3f0a8bd4 DD 03f0a8bd4r			; 0.541196
CONST	ENDS
;	COMDAT __real@3f000000
CONST	SEGMENT
__real@3f000000 DD 03f000000r			; 0.5
CONST	ENDS
;	COMDAT __real@3ed65e89
CONST	SEGMENT
__real@3ed65e89 DD 03ed65e89r			; 0.41869
CONST	ENDS
;	COMDAT __real@3ec3ef15
CONST	SEGMENT
__real@3ec3ef15 DD 03ec3ef15r			; 0.382683
CONST	ENDS
;	COMDAT __real@3eb33333
CONST	SEGMENT
__real@3eb33333 DD 03eb33333r			; 0.35
CONST	ENDS
;	COMDAT __real@3ea99ae9
CONST	SEGMENT
__real@3ea99ae9 DD 03ea99ae9r			; 0.33126
CONST	ENDS
;	COMDAT __real@3e991687
CONST	SEGMENT
__real@3e991687 DD 03e991687r			; 0.299
CONST	ENDS
;	COMDAT __real@3e800000
CONST	SEGMENT
__real@3e800000 DD 03e800000r			; 0.25
CONST	ENDS
;	COMDAT __real@3de978d5
CONST	SEGMENT
__real@3de978d5 DD 03de978d5r			; 0.114
CONST	ENDS
;	COMDAT __real@3da685db
CONST	SEGMENT
__real@3da685db DD 03da685dbr			; 0.08131
CONST	ENDS
;	COMDAT __real@3d6147ae
CONST	SEGMENT
__real@3d6147ae DD 03d6147aer			; 0.055
CONST	ENDS
;	COMDAT __real@3d25aee6
CONST	SEGMENT
__real@3d25aee6 DD 03d25aee6r			; 0.04045
CONST	ENDS
;	COMDAT __real@3c23d70a
CONST	SEGMENT
__real@3c23d70a DD 03c23d70ar			; 0.01
CONST	ENDS
;	COMDAT __real@3b4d2e1c
CONST	SEGMENT
__real@3b4d2e1c DD 03b4d2e1cr			; 0.0031308
CONST	ENDS
;	COMDAT __real@17800000
CONST	SEGMENT
__real@17800000 DD 017800000r			; 8.27181e-25
CONST	ENDS
;	COMDAT __real@0a4fb11f
CONST	SEGMENT
__real@0a4fb11f DD 00a4fb11fr			; 1e-32
CONST	ENDS
;	COMDAT __real@0000000000000000
CONST	SEGMENT
__real@0000000000000000 DQ 00000000000000000r	; 0
CONST	ENDS
;	COMDAT __real@00000000
CONST	SEGMENT
__real@00000000 DD 000000000r			; 0
CONST	ENDS
_DATA	SEGMENT
stbsp__period DB 02eH
stbsp__comma DB	02cH
	ORG $+6
stbsp__digitpair DW 00H
	DB	'00010203040506070809101112131415161718192021222324252627'
	DB	'2829303132333435363738394041424344454647484950515253545556575'
	DB	'8596061626364656667686970717273747576777879808182838485868788'
	DB	'8990919293949596979899', 00H
	ORG $+1
$SG35625 DB	'NaN', 00H
?hex@?1??stbsp_vsprintfcb@@9@9 DB '0123456789abcdefxp', 00H ; `stbsp_vsprintfcb'::`2'::hex
	ORG $+1
$SG35626 DB	'Inf', 00H
?hexu@?1??stbsp_vsprintfcb@@9@9 DB '0123456789ABCDEFXP', 00H ; `stbsp_vsprintfcb'::`2'::hexu
	ORG $+1
$SG35046 DB	'null', 00H
	ORG $+3
$SG35120 DB	'_KMGT', 00H
	ORG $+2
$SG35121 DB	'_kMGT', 00H
	ORG $+2
$SG69980 DB	'err', 00H
$SG69979 DB	'assertion triggered', 00H
$SG69985 DB	'err', 00H
$SG69981 DB	'ccopenfile', 00H
	ORG $+1
$SG70008 DB	'err', 00H
$SG69982 DB	'W:\cpp\void\rx\cc\ccsys.c', 00H
	ORG $+2
$SG70096 DB	'err', 00H
$SG69984 DB	'''%s'': invalid file', 00H
	ORG $+1
$SG70339 DB	'err', 00H
$SG69986 DB	'ccopenfile', 00H
	ORG $+1
$SG70343 DB	'err', 00H
$SG69987 DB	'W:\cpp\void\rx\cc\ccsys.c', 00H
	ORG $+2
$SG70348 DB	'err', 00H
$SG70007 DB	'invalid file', 00H
	ORG $+3
$SG70009 DB	'ccpullfile', 00H
	ORG $+1
$SG70352 DB	'err', 00H
$SG70010 DB	'W:\cpp\void\rx\cc\ccsys.c', 00H
	ORG $+2
$SG70357 DB	'err', 00H
$SG70013 DB	'ccpullfile', 00H
	ORG $+1
$SG70362 DB	'err', 00H
$SG70014 DB	'W:\cpp\void\rx\cc\ccsys.c', 00H
	ORG $+2
$SG70092 DB	'dummy', 00H
	ORG $+2
$SG70367 DB	'err', 00H
$SG70095 DB	'assertion triggered', 00H
$SG70372 DB	'err', 00H
$SG70097 DB	'ccdebug_', 00H
	ORG $+3
$SG70377 DB	'err', 00H
$SG70098 DB	'W:\cpp\void\rx\cc\ccdbg.c', 00H
	ORG $+2
$SG70382 DB	'err', 00H
$SG70338 DB	'corrupted heap block, head guard breached', 00H
	ORG $+2
$SG70387 DB	'err', 00H
$SG70340 DB	'ccsentry_block_check', 00H
	ORG $+3
$SG70341 DB	'W:\cpp\void\rx\cc\ccdbg.c', 00H
	ORG $+2
$SG70392 DB	'err', 00H
$SG70342 DB	'assertion triggered', 00H
$SG70397 DB	'err', 00H
$SG70344 DB	'ccsentry_block_check', 00H
	ORG $+3
$SG70345 DB	'W:\cpp\void\rx\cc\ccdbg.c', 00H
	ORG $+2
$SG71996 DB	'rb', 00H
	ORG $+1
$SG70347 DB	'corrupted heap block, tail guard breached', 00H
	ORG $+2
$SG72047 DB	'rb', 00H
	ORG $+1
$SG70349 DB	'ccsentry_block_check', 00H
	ORG $+3
$SG70350 DB	'W:\cpp\void\rx\cc\ccdbg.c', 00H
	ORG $+2
$SG72198 DB	'rb', 00H
	ORG $+1
$SG70351 DB	'assertion triggered', 00H
$SG72224 DB	'rb', 00H
	ORG $+1
$SG70353 DB	'ccsentry_block_check', 00H
	ORG $+3
$SG70354 DB	'W:\cpp\void\rx\cc\ccdbg.c', 00H
	ORG $+2
stbi__l2h_gamma DD 0400ccccdr			; 2.2
$SG70356 DB	'assertion triggered', 00H
stbi__l2h_scale DD 03f800000r			; 1
$SG70358 DB	'ccsentry_block_check', 00H
	ORG $+3
$SG70359 DB	'W:\cpp\void\rx\cc\ccdbg.c', 00H
	ORG $+2
stbi__h2l_gamma_i DD 03ee8ba2er			; 0.454545
$SG70361 DB	'assertion triggered', 00H
stbi__h2l_scale_i DD 03f800000r			; 1
$SG70363 DB	'ccsentry_block_check', 00H
	ORG $+3
$SG70364 DB	'W:\cpp\void\rx\cc\ccdbg.c', 00H
	ORG $+2
$SG72433 DB	'0', 00H, 00H, 00H
$SG70366 DB	'assertion triggered', 00H
$SG72546 DB	'0', 00H, 00H, 00H
$SG70368 DB	'ccsentry_block_check', 00H
	ORG $+3
$SG70369 DB	'W:\cpp\void\rx\cc\ccdbg.c', 00H
	ORG $+2
$SG73727 DB	'bad TQ', 00H
	ORG $+1
$SG77247 DB	'-Y ', 00H
$SG70371 DB	'assertion triggered', 00H
$SG77250 DB	'+X ', 00H
$SG70373 DB	'ccsentry_block_check', 00H
	ORG $+3
$SG70374 DB	'W:\cpp\void\rx\cc\ccdbg.c', 00H
	ORG $+2
$SG73754 DB	'no SOI', 00H
	ORG $+1
$SG77327 DB	'-Y ', 00H
$SG70376 DB	'assertion triggered', 00H
$SG77329 DB	'+X ', 00H
$SG70378 DB	'ccsentry_block_check', 00H
	ORG $+3
$SG70379 DB	'W:\cpp\void\rx\cc\ccdbg.c', 00H
	ORG $+2
$SG73758 DB	'no SOF', 00H
	ORG $+1
$SG77573 DB	'rb', 00H
	ORG $+1
$SG70381 DB	'assertion triggered', 00H
$SG77593 DB	'rb', 00H
	ORG $+1
$SG70383 DB	'ccsentry_block_check', 00H
	ORG $+3
$SG70384 DB	'W:\cpp\void\rx\cc\ccdbg.c', 00H
	ORG $+2
$SG77239 DB	'#?RGBE', 00H
	ORG $+1
stbir__type_size DB 01H
	DB	02H
	DB	04H
	DB	04H
$SG70386 DB	'assertion triggered', 00H
$SG80161 DB	'wb', 00H
	ORG $+1
$SG70388 DB	'ccsentry_block_check', 00H
	ORG $+3
$SG70389 DB	'W:\cpp\void\rx\cc\ccdbg.c', 00H
	ORG $+2
$SG80232 DB	'0', 00H, 00H, 00H
$SG70391 DB	'assertion triggered', 00H
$SG80706 DB	'p', 00H, 00H, 00H
$SG70393 DB	'ccsentry_block_check', 00H
	ORG $+3
$SG70394 DB	'W:\cpp\void\rx\cc\ccdbg.c', 00H
	ORG $+2
$SG81219 DB	'wb', 00H
	ORG $+1
$SG70396 DB	'assertion triggered', 00H
$SG82567 DB	'0', 00H, 00H, 00H
$SG70398 DB	'ccsentry_block_check', 00H
	ORG $+3
$SG70399 DB	'W:\cpp\void\rx\cc\ccdbg.c', 00H
	ORG $+2
$SG82853 DB	'0', 00H, 00H, 00H
$SG70668 DB	'%s: %s[%i] %s() %s', 0aH, 00H
$SG82871 DB	'0', 00H, 00H, 00H
stbi__stdio_callbacks DQ FLAT:stbi__stdio_read
	DQ	FLAT:stbi__stdio_skip
	DQ	FLAT:stbi__stdio_eof
$SG71655 DB	'stbi__malloc', 00H
	ORG $+3
$SG71656 DB	'W:\cpp\void\rx\stb_image.h', 00H
	ORG $+1
$SG83127 DB	'0', 00H, 00H, 00H
$SG71742 DB	'stbi_image_free', 00H
$SG71743 DB	'W:\cpp\void\rx\stb_image.h', 00H
	ORG $+1
$SG151627 DB	'r', 00H
	ORG $+2
$SG71801 DB	'unknown image type', 00H
	ORG $+1
$SG151630 DB	'err', 00H
$SG71826 DB	'outofmem', 00H
	ORG $+3
$SG73722 DB	'bad H', 00H
	ORG $+2
$SG151635 DB	'err', 00H
$SG71827 DB	'stbi__convert_16_to_8', 00H
	ORG $+2
$SG71828 DB	'W:\cpp\void\rx\stb_image.h', 00H
	ORG $+5
$SG71854 DB	'outofmem', 00H
	ORG $+7
$SG71855 DB	'stbi__convert_8_to_16', 00H
	ORG $+2
$SG71856 DB	'W:\cpp\void\rx\stb_image.h', 00H
	ORG $+5
$SG71924 DB	'W', 00H, ':', 00H, '\', 00H, 'c', 00H, 'p', 00H, 'p', 00H
	DB	'\', 00H, 'v', 00H, 'o', 00H, 'i', 00H, 'd', 00H, '\', 00H, 'r'
	DB	00H, 'x', 00H, '\', 00H, 's', 00H, 't', 00H, 'b', 00H, '_', 00H
	DB	'i', 00H, 'm', 00H, 'a', 00H, 'g', 00H, 'e', 00H, '.', 00H, 'h'
	DB	00H, 00H, 00H
	ORG $+2
$SG71925 DB	'r', 00H, 'i', 00H, '.', 00H, 'b', 00H, 'i', 00H, 't', 00H
	DB	's', 00H, '_', 00H, 'p', 00H, 'e', 00H, 'r', 00H, '_', 00H, 'c'
	DB	00H, 'h', 00H, 'a', 00H, 'n', 00H, 'n', 00H, 'e', 00H, 'l', 00H
	DB	' ', 00H, '=', 00H, '=', 00H, ' ', 00H, '8', 00H, ' ', 00H, '|'
	DB	00H, '|', 00H, ' ', 00H, 'r', 00H, 'i', 00H, '.', 00H, 'b', 00H
	DB	'i', 00H, 't', 00H, 's', 00H, '_', 00H, 'p', 00H, 'e', 00H, 'r'
	DB	00H, '_', 00H, 'c', 00H, 'h', 00H, 'a', 00H, 'n', 00H, 'n', 00H
	DB	'e', 00H, 'l', 00H, ' ', 00H, '=', 00H, '=', 00H, ' ', 00H, '1'
	DB	00H, '6', 00H, 00H, 00H
	ORG $+4
$SG71951 DB	'W', 00H, ':', 00H, '\', 00H, 'c', 00H, 'p', 00H, 'p', 00H
	DB	'\', 00H, 'v', 00H, 'o', 00H, 'i', 00H, 'd', 00H, '\', 00H, 'r'
	DB	00H, 'x', 00H, '\', 00H, 's', 00H, 't', 00H, 'b', 00H, '_', 00H
	DB	'i', 00H, 'm', 00H, 'a', 00H, 'g', 00H, 'e', 00H, '.', 00H, 'h'
	DB	00H, 00H, 00H
	ORG $+2
$SG72151 DB	'unknown image type', 00H
	ORG $+5
$SG71952 DB	'r', 00H, 'i', 00H, '.', 00H, 'b', 00H, 'i', 00H, 't', 00H
	DB	's', 00H, '_', 00H, 'p', 00H, 'e', 00H, 'r', 00H, '_', 00H, 'c'
	DB	00H, 'h', 00H, 'a', 00H, 'n', 00H, 'n', 00H, 'e', 00H, 'l', 00H
	DB	' ', 00H, '=', 00H, '=', 00H, ' ', 00H, '8', 00H, ' ', 00H, '|'
	DB	00H, '|', 00H, ' ', 00H, 'r', 00H, 'i', 00H, '.', 00H, 'b', 00H
	DB	'i', 00H, 't', 00H, 's', 00H, '_', 00H, 'p', 00H, 'e', 00H, 'r'
	DB	00H, '_', 00H, 'c', 00H, 'h', 00H, 'a', 00H, 'n', 00H, 'n', 00H
	DB	'e', 00H, 'l', 00H, ' ', 00H, '=', 00H, '=', 00H, ' ', 00H, '1'
	DB	00H, '6', 00H, 00H, 00H
	ORG $+4
$SG71998 DB	'can''t fopen', 00H
	ORG $+4
$SG72049 DB	'can''t fopen', 00H
	ORG $+4
$SG72200 DB	'can''t fopen', 00H
	ORG $+4
$SG72413 DB	'W', 00H, ':', 00H, '\', 00H, 'c', 00H, 'p', 00H, 'p', 00H
	DB	'\', 00H, 'v', 00H, 'o', 00H, 'i', 00H, 'd', 00H, '\', 00H, 'r'
	DB	00H, 'x', 00H, '\', 00H, 's', 00H, 't', 00H, 'b', 00H, '_', 00H
	DB	'i', 00H, 'm', 00H, 'a', 00H, 'g', 00H, 'e', 00H, '.', 00H, 'h'
	DB	00H, 00H, 00H
	ORG $+2
$SG72414 DB	'r', 00H, 'e', 00H, 'q', 00H, '_', 00H, 'c', 00H, 'o', 00H
	DB	'm', 00H, 'p', 00H, ' ', 00H, '>', 00H, '=', 00H, ' ', 00H, '1'
	DB	00H, ' ', 00H, '&', 00H, '&', 00H, ' ', 00H, 'r', 00H, 'e', 00H
	DB	'q', 00H, '_', 00H, 'c', 00H, 'o', 00H, 'm', 00H, 'p', 00H, ' '
	DB	00H, '<', 00H, '=', 00H, ' ', 00H, '4', 00H, 00H, 00H
	ORG $+2
$SG72416 DB	'stbi__convert_format', 00H
	ORG $+3
$SG72417 DB	'W:\cpp\void\rx\stb_image.h', 00H
	ORG $+5
$SG72418 DB	'outofmem', 00H
	ORG $+7
$SG72432 DB	'W', 00H, ':', 00H, '\', 00H, 'c', 00H, 'p', 00H, 'p', 00H
	DB	'\', 00H, 'v', 00H, 'o', 00H, 'i', 00H, 'd', 00H, '\', 00H, 'r'
	DB	00H, 'x', 00H, '\', 00H, 's', 00H, 't', 00H, 'b', 00H, '_', 00H
	DB	'i', 00H, 'm', 00H, 'a', 00H, 'g', 00H, 'e', 00H, '.', 00H, 'h'
	DB	00H, 00H, 00H
	ORG $+2
$SG72434 DB	'stbi__convert_format', 00H
	ORG $+3
$SG72435 DB	'W:\cpp\void\rx\stb_image.h', 00H
	ORG $+5
$SG72436 DB	'stbi__convert_format', 00H
	ORG $+3
$SG72437 DB	'W:\cpp\void\rx\stb_image.h', 00H
	ORG $+5
$SG72438 DB	'unsupported', 00H
	ORG $+4
$SG72439 DB	'stbi__convert_format', 00H
	ORG $+3
$SG72440 DB	'W:\cpp\void\rx\stb_image.h', 00H
	ORG $+5
$SG72526 DB	'W', 00H, ':', 00H, '\', 00H, 'c', 00H, 'p', 00H, 'p', 00H
	DB	'\', 00H, 'v', 00H, 'o', 00H, 'i', 00H, 'd', 00H, '\', 00H, 'r'
	DB	00H, 'x', 00H, '\', 00H, 's', 00H, 't', 00H, 'b', 00H, '_', 00H
	DB	'i', 00H, 'm', 00H, 'a', 00H, 'g', 00H, 'e', 00H, '.', 00H, 'h'
	DB	00H, 00H, 00H
	ORG $+2
$SG72527 DB	'r', 00H, 'e', 00H, 'q', 00H, '_', 00H, 'c', 00H, 'o', 00H
	DB	'm', 00H, 'p', 00H, ' ', 00H, '>', 00H, '=', 00H, ' ', 00H, '1'
	DB	00H, ' ', 00H, '&', 00H, '&', 00H, ' ', 00H, 'r', 00H, 'e', 00H
	DB	'q', 00H, '_', 00H, 'c', 00H, 'o', 00H, 'm', 00H, 'p', 00H, ' '
	DB	00H, '<', 00H, '=', 00H, ' ', 00H, '4', 00H, 00H, 00H
	ORG $+2
$SG72529 DB	'stbi__convert_format16', 00H
	ORG $+1
$SG72530 DB	'W:\cpp\void\rx\stb_image.h', 00H
	ORG $+5
$SG72531 DB	'outofmem', 00H
	ORG $+7
$SG72545 DB	'W', 00H, ':', 00H, '\', 00H, 'c', 00H, 'p', 00H, 'p', 00H
	DB	'\', 00H, 'v', 00H, 'o', 00H, 'i', 00H, 'd', 00H, '\', 00H, 'r'
	DB	00H, 'x', 00H, '\', 00H, 's', 00H, 't', 00H, 'b', 00H, '_', 00H
	DB	'i', 00H, 'm', 00H, 'a', 00H, 'g', 00H, 'e', 00H, '.', 00H, 'h'
	DB	00H, 00H, 00H
	ORG $+2
$SG72547 DB	'stbi__convert_format16', 00H
	ORG $+1
$SG72548 DB	'W:\cpp\void\rx\stb_image.h', 00H
	ORG $+5
$SG72549 DB	'stbi__convert_format16', 00H
	ORG $+1
$SG72550 DB	'W:\cpp\void\rx\stb_image.h', 00H
	ORG $+5
$SG72551 DB	'unsupported', 00H
	ORG $+4
$SG72552 DB	'stbi__convert_format16', 00H
	ORG $+1
$SG72553 DB	'W:\cpp\void\rx\stb_image.h', 00H
	ORG $+5
$SG72587 DB	'stbi__ldr_to_hdr', 00H
	ORG $+7
$SG72588 DB	'W:\cpp\void\rx\stb_image.h', 00H
	ORG $+5
$SG72589 DB	'outofmem', 00H
	ORG $+7
$SG72593 DB	'stbi__ldr_to_hdr', 00H
	ORG $+7
$SG72594 DB	'W:\cpp\void\rx\stb_image.h', 00H
	ORG $+5
$SG72630 DB	'stbi__hdr_to_ldr', 00H
	ORG $+7
$SG72631 DB	'W:\cpp\void\rx\stb_image.h', 00H
	ORG $+5
$SG72632 DB	'outofmem', 00H
	ORG $+7
$SG72640 DB	'stbi__hdr_to_ldr', 00H
	ORG $+7
$SG72641 DB	'W:\cpp\void\rx\stb_image.h', 00H
	ORG $+5
$SG72766 DB	'bad code lengths', 00H
	ORG $+7
$SG72826 DB	'W', 00H, ':', 00H, '\', 00H, 'c', 00H, 'p', 00H, 'p', 00H
	DB	'\', 00H, 'v', 00H, 'o', 00H, 'i', 00H, 'd', 00H, '\', 00H, 'r'
	DB	00H, 'x', 00H, '\', 00H, 's', 00H, 't', 00H, 'b', 00H, '_', 00H
	DB	'i', 00H, 'm', 00H, 'a', 00H, 'g', 00H, 'e', 00H, '.', 00H, 'h'
	DB	00H, 00H, 00H
	ORG $+2
$SG72827 DB	'(', 00H, '(', 00H, '(', 00H, 'j', 00H, '-', 00H, '>', 00H
	DB	'c', 00H, 'o', 00H, 'd', 00H, 'e', 00H, '_', 00H, 'b', 00H, 'u'
	DB	00H, 'f', 00H, 'f', 00H, 'e', 00H, 'r', 00H, ')', 00H, ' ', 00H
	DB	'>', 00H, '>', 00H, ' ', 00H, '(', 00H, '3', 00H, '2', 00H, ' '
	DB	00H, '-', 00H, ' ', 00H, 'h', 00H, '-', 00H, '>', 00H, 's', 00H
	DB	'i', 00H, 'z', 00H, 'e', 00H, '[', 00H, 'c', 00H, ']', 00H, ')'
	DB	00H, ')', 00H, ' ', 00H, '&', 00H, ' ', 00H, 's', 00H, 't', 00H
	DB	'b', 00H, 'i', 00H, '_', 00H, '_', 00H, 'b', 00H, 'm', 00H, 'a'
	DB	00H, 's', 00H, 'k', 00H, '[', 00H, 'h', 00H, '-', 00H, '>', 00H
	DB	's', 00H, 'i', 00H, 'z', 00H, 'e', 00H, '[', 00H, 'c', 00H, ']'
	DB	00H, ']', 00H, ')', 00H, ' ', 00H, '=', 00H, '=', 00H, ' ', 00H
	DB	'h', 00H, '-', 00H, '>', 00H, 'c', 00H, 'o', 00H, 'd', 00H, 'e'
	DB	00H, '[', 00H, 'c', 00H, ']', 00H, 00H, 00H
	ORG $+4
$SG72887 DB	'bad huffman code', 00H
	ORG $+7
$SG72892 DB	'bad huffman code', 00H
	ORG $+7
$SG72912 DB	'can''t merge dc and ac', 00H
	ORG $+2
$SG72918 DB	'can''t merge dc and ac', 00H
	ORG $+2
$SG72959 DB	'can''t merge dc and ac', 00H
	ORG $+2
$SG72967 DB	'bad huffman code', 00H
	ORG $+7
$SG72980 DB	'bad huffman code', 00H
	ORG $+7
$SG72987 DB	'bad huffman code', 00H
	ORG $+7
$SG73566 DB	'expected marker', 00H
$SG73569 DB	'bad DRI len', 00H
	ORG $+4
$SG73572 DB	'bad DQT type', 00H
	ORG $+3
$SG73574 DB	'bad DQT table', 00H
	ORG $+2
$SG73578 DB	'bad DHT header', 00H
	ORG $+1
$SG73590 DB	'bad COM len', 00H
	ORG $+4
$SG73591 DB	'bad APP len', 00H
	ORG $+4
$SG73599 DB	'unknown marker', 00H
	ORG $+1
$SG73619 DB	'bad SOS component count', 00H
$SG73621 DB	'bad SOS len', 00H
	ORG $+4
$SG73625 DB	'bad DC huff', 00H
	ORG $+4
$SG73627 DB	'bad AC huff', 00H
	ORG $+4
$SG73632 DB	'bad SOS', 00H
$SG73634 DB	'bad SOS', 00H
$SG73637 DB	'bad SOS', 00H
$SG73654 DB	'stbi__free_jpeg_components', 00H
	ORG $+5
$SG73655 DB	'W:\cpp\void\rx\stb_image.h', 00H
	ORG $+5
$SG73657 DB	'stbi__free_jpeg_components', 00H
	ORG $+5
$SG73658 DB	'W:\cpp\void\rx\stb_image.h', 00H
	ORG $+5
$SG73660 DB	'stbi__free_jpeg_components', 00H
	ORG $+5
$SG73661 DB	'W:\cpp\void\rx\stb_image.h', 00H
	ORG $+5
$SG73704 DB	'bad SOF len', 00H
	ORG $+4
$SG73706 DB	'only 8-bit', 00H
	ORG $+5
$SG73708 DB	'no header height', 00H
	ORG $+7
$SG73710 DB	'0 width', 00H
$SG73712 DB	'too large', 00H
	ORG $+6
$SG73714 DB	'too large', 00H
	ORG $+6
$SG73716 DB	'bad component count', 00H
	ORG $+4
$SG73718 DB	'bad SOF len', 00H
$SG73725 DB	'bad V', 00H
	ORG $+6
$SG73730 DB	'too large', 00H
	ORG $+2
$SG73734 DB	'bad H', 00H
	ORG $+2
$SG73736 DB	'bad V', 00H
	ORG $+6
$SG73738 DB	'outofmem', 00H
	ORG $+7
$SG73741 DB	'outofmem', 00H
	ORG $+7
$SG73787 DB	'bad DNL len', 00H
	ORG $+4
$SG73789 DB	'bad DNL height', 00H
	ORG $+1
$SG74218 DB	'bad req_comp', 00H
	ORG $+3
$SG74224 DB	'outofmem', 00H
	ORG $+7
$SG74234 DB	'outofmem', 00H
	ORG $+7
$SG74283 DB	'outofmem', 00H
	ORG $+7
$SG74284 DB	'stbi__jpeg_load', 00H
$SG74285 DB	'W:\cpp\void\rx\stb_image.h', 00H
	ORG $+5
$SG74294 DB	'outofmem', 00H
	ORG $+7
$SG74295 DB	'stbi__jpeg_test', 00H
$SG74296 DB	'W:\cpp\void\rx\stb_image.h', 00H
	ORG $+5
$SG74325 DB	'outofmem', 00H
	ORG $+7
$SG74326 DB	'stbi__jpeg_info', 00H
$SG74327 DB	'W:\cpp\void\rx\stb_image.h', 00H
	ORG $+5
$SG74348 DB	'W', 00H, ':', 00H, '\', 00H, 'c', 00H, 'p', 00H, 'p', 00H
	DB	'\', 00H, 'v', 00H, 'o', 00H, 'i', 00H, 'd', 00H, '\', 00H, 'r'
	DB	00H, 'x', 00H, '\', 00H, 's', 00H, 't', 00H, 'b', 00H, '_', 00H
	DB	'i', 00H, 'm', 00H, 'a', 00H, 'g', 00H, 'e', 00H, '.', 00H, 'h'
	DB	00H, 00H, 00H
	ORG $+2
$SG74349 DB	'b', 00H, 'i', 00H, 't', 00H, 's', 00H, ' ', 00H, '<', 00H
	DB	'=', 00H, ' ', 00H, '1', 00H, '6', 00H, 00H, 00H
	ORG $+2
$SG74387 DB	'bad sizes', 00H
	ORG $+6
$SG74390 DB	'bad codelengths', 00H
$SG74478 DB	'output buffer limit', 00H
	ORG $+4
$SG74480 DB	'outofmem', 00H
	ORG $+7
$SG74482 DB	'outofmem', 00H
	ORG $+7
$SG74483 DB	'stbi__zexpand', 00H
	ORG $+2
$SG74484 DB	'W:\cpp\void\rx\stb_image.h', 00H
	ORG $+5
$SG74486 DB	'outofmem', 00H
	ORG $+7
$SG74515 DB	'bad huffman code', 00H
	ORG $+7
$SG74521 DB	'bad huffman code', 00H
	ORG $+7
$SG74524 DB	'bad dist', 00H
	ORG $+7
$SG74559 DB	'bad codelengths', 00H
$SG74565 DB	'bad codelengths', 00H
$SG74570 DB	'bad codelengths', 00H
$SG74572 DB	'bad codelengths', 00H
$SG74574 DB	'bad codelengths', 00H
$SG74592 DB	'zlib corrupt', 00H
	ORG $+3
$SG74594 DB	'zlib corrupt', 00H
	ORG $+3
$SG74596 DB	'read past buffer', 00H
	ORG $+7
$SG74607 DB	'bad zlib header', 00H
$SG74609 DB	'bad zlib header', 00H
$SG74611 DB	'no preset dict', 00H
	ORG $+1
$SG74613 DB	'bad compression', 00H
$SG74674 DB	'stbi_zlib_decode_malloc_guesssize', 00H
	ORG $+6
$SG74675 DB	'W:\cpp\void\rx\stb_image.h', 00H
	ORG $+5
$SG74707 DB	'stbi_zlib_decode_malloc_guesssize_headerflag', 00H
	ORG $+3
$SG74708 DB	'W:\cpp\void\rx\stb_image.h', 00H
	ORG $+5
$SG74744 DB	'stbi_zlib_decode_noheader_malloc', 00H
	ORG $+7
$SG74745 DB	'W:\cpp\void\rx\stb_image.h', 00H
	ORG $+5
$SG74781 DB	'bad png sig', 00H
first_row_filter DB 00H
	DB	01H
	DB	00H
	DB	05H
	DB	06H
	ORG $+7
$SG74972 DB	'W', 00H, ':', 00H, '\', 00H, 'c', 00H, 'p', 00H, 'p', 00H
	DB	'\', 00H, 'v', 00H, 'o', 00H, 'i', 00H, 'd', 00H, '\', 00H, 'r'
	DB	00H, 'x', 00H, '\', 00H, 's', 00H, 't', 00H, 'b', 00H, '_', 00H
	DB	'i', 00H, 'm', 00H, 'a', 00H, 'g', 00H, 'e', 00H, '.', 00H, 'h'
	DB	00H, 00H, 00H
	ORG $+2
$SG74979 DB	'not enough pixels', 00H
	ORG $+6
$SG74973 DB	'o', 00H, 'u', 00H, 't', 00H, '_', 00H, 'n', 00H, ' ', 00H
	DB	'=', 00H, '=', 00H, ' ', 00H, 's', 00H, '-', 00H, '>', 00H, 'i'
	DB	00H, 'm', 00H, 'g', 00H, '_', 00H, 'n', 00H, ' ', 00H, '|', 00H
	DB	'|', 00H, ' ', 00H, 'o', 00H, 'u', 00H, 't', 00H, '_', 00H, 'n'
	DB	00H, ' ', 00H, '=', 00H, '=', 00H, ' ', 00H, 's', 00H, '-', 00H
	DB	'>', 00H, 'i', 00H, 'm', 00H, 'g', 00H, '_', 00H, 'n', 00H, '+'
	DB	00H, '1', 00H, 00H, 00H
	ORG $+6
$SG74975 DB	'outofmem', 00H
	ORG $+7
$SG74977 DB	'too large', 00H
	ORG $+6
$SG74981 DB	'invalid filter', 00H
	ORG $+1
$SG74984 DB	'invalid width', 00H
	ORG $+2
$SG75009 DB	'W', 00H, ':', 00H, '\', 00H, 'c', 00H, 'p', 00H, 'p', 00H
	DB	'\', 00H, 'v', 00H, 'o', 00H, 'i', 00H, 'd', 00H, '\', 00H, 'r'
	DB	00H, 'x', 00H, '\', 00H, 's', 00H, 't', 00H, 'b', 00H, '_', 00H
	DB	'i', 00H, 'm', 00H, 'a', 00H, 'g', 00H, 'e', 00H, '.', 00H, 'h'
	DB	00H, 00H, 00H
	ORG $+2
$SG75010 DB	'i', 00H, 'm', 00H, 'g', 00H, '_', 00H, 'n', 00H, '+', 00H
	DB	'1', 00H, ' ', 00H, '=', 00H, '=', 00H, ' ', 00H, 'o', 00H, 'u'
	DB	00H, 't', 00H, '_', 00H, 'n', 00H, 00H, 00H
	ORG $+6
$SG75040 DB	'W', 00H, ':', 00H, '\', 00H, 'c', 00H, 'p', 00H, 'p', 00H
	DB	'\', 00H, 'v', 00H, 'o', 00H, 'i', 00H, 'd', 00H, '\', 00H, 'r'
	DB	00H, 'x', 00H, '\', 00H, 's', 00H, 't', 00H, 'b', 00H, '_', 00H
	DB	'i', 00H, 'm', 00H, 'a', 00H, 'g', 00H, 'e', 00H, '.', 00H, 'h'
	DB	00H, 00H, 00H
	ORG $+2
$SG75041 DB	'i', 00H, 'm', 00H, 'g', 00H, '_', 00H, 'n', 00H, ' ', 00H
	DB	'=', 00H, '=', 00H, ' ', 00H, '3', 00H, 00H, 00H
	ORG $+2
$SG75086 DB	'outofmem', 00H
	ORG $+7
$SG75089 DB	'stbi__create_png_image', 00H
	ORG $+1
$SG75090 DB	'W:\cpp\void\rx\stb_image.h', 00H
	ORG $+5
$SG75091 DB	'stbi__create_png_image', 00H
	ORG $+1
$SG75092 DB	'W:\cpp\void\rx\stb_image.h', 00H
	ORG $+5
$SG75113 DB	'W', 00H, ':', 00H, '\', 00H, 'c', 00H, 'p', 00H, 'p', 00H
	DB	'\', 00H, 'v', 00H, 'o', 00H, 'i', 00H, 'd', 00H, '\', 00H, 'r'
	DB	00H, 'x', 00H, '\', 00H, 's', 00H, 't', 00H, 'b', 00H, '_', 00H
	DB	'i', 00H, 'm', 00H, 'a', 00H, 'g', 00H, 'e', 00H, '.', 00H, 'h'
	DB	00H, 00H, 00H
	ORG $+2
$SG75114 DB	'o', 00H, 'u', 00H, 't', 00H, '_', 00H, 'n', 00H, ' ', 00H
	DB	'=', 00H, '=', 00H, ' ', 00H, '2', 00H, ' ', 00H, '|', 00H, '|'
	DB	00H, ' ', 00H, 'o', 00H, 'u', 00H, 't', 00H, '_', 00H, 'n', 00H
	DB	' ', 00H, '=', 00H, '=', 00H, ' ', 00H, '4', 00H, 00H, 00H
	ORG $+6
$SG75139 DB	'W', 00H, ':', 00H, '\', 00H, 'c', 00H, 'p', 00H, 'p', 00H
	DB	'\', 00H, 'v', 00H, 'o', 00H, 'i', 00H, 'd', 00H, '\', 00H, 'r'
	DB	00H, 'x', 00H, '\', 00H, 's', 00H, 't', 00H, 'b', 00H, '_', 00H
	DB	'i', 00H, 'm', 00H, 'a', 00H, 'g', 00H, 'e', 00H, '.', 00H, 'h'
	DB	00H, 00H, 00H
	ORG $+2
$SG75140 DB	'o', 00H, 'u', 00H, 't', 00H, '_', 00H, 'n', 00H, ' ', 00H
	DB	'=', 00H, '=', 00H, ' ', 00H, '2', 00H, ' ', 00H, '|', 00H, '|'
	DB	00H, ' ', 00H, 'o', 00H, 'u', 00H, 't', 00H, '_', 00H, 'n', 00H
	DB	' ', 00H, '=', 00H, '=', 00H, ' ', 00H, '4', 00H, 00H, 00H
	ORG $+6
$SG75171 DB	'outofmem', 00H
	ORG $+7
$SG75174 DB	'stbi__expand_png_palette', 00H
	ORG $+7
$SG75175 DB	'W:\cpp\void\rx\stb_image.h', 00H
	ORG $+5
$SG75221 DB	'W', 00H, ':', 00H, '\', 00H, 'c', 00H, 'p', 00H, 'p', 00H
	DB	'\', 00H, 'v', 00H, 'o', 00H, 'i', 00H, 'd', 00H, '\', 00H, 'r'
	DB	00H, 'x', 00H, '\', 00H, 's', 00H, 't', 00H, 'b', 00H, '_', 00H
	DB	'i', 00H, 'm', 00H, 'a', 00H, 'g', 00H, 'e', 00H, '.', 00H, 'h'
	DB	00H, 00H, 00H
	ORG $+2
$SG75222 DB	's', 00H, '-', 00H, '>', 00H, 'i', 00H, 'm', 00H, 'g', 00H
	DB	'_', 00H, 'o', 00H, 'u', 00H, 't', 00H, '_', 00H, 'n', 00H, ' '
	DB	00H, '=', 00H, '=', 00H, ' ', 00H, '4', 00H, 00H, 00H
	ORG $+4
?invalid_chunk@?BO@??stbi__parse_png_file@@9@9 DB 'XXXX PNG chunk not kno'
	DB	'wn', 00H					; `stbi__parse_png_file'::`30'::invalid_chunk
	ORG $+7
$SG75329 DB	'multiple IHDR', 00H
	ORG $+2
$SG75331 DB	'bad IHDR len', 00H
	ORG $+3
$SG75333 DB	'too large', 00H
	ORG $+6
$SG75335 DB	'too large', 00H
	ORG $+6
$SG75337 DB	'1/2/4/8/16-bit only', 00H
	ORG $+4
$SG75339 DB	'bad ctype', 00H
	ORG $+6
$SG75341 DB	'bad ctype', 00H
	ORG $+6
$SG75345 DB	'bad ctype', 00H
	ORG $+6
$SG75347 DB	'bad comp method', 00H
$SG75349 DB	'bad filter method', 00H
	ORG $+6
$SG75351 DB	'bad interlace method', 00H
	ORG $+3
$SG75354 DB	'0-pixel image', 00H
	ORG $+2
$SG75358 DB	'too large', 00H
	ORG $+6
$SG75361 DB	'too large', 00H
	ORG $+6
$SG75364 DB	'first not IHDR', 00H
	ORG $+1
$SG75366 DB	'invalid PLTE', 00H
	ORG $+3
$SG75368 DB	'invalid PLTE', 00H
	ORG $+3
$SG75371 DB	'first not IHDR', 00H
	ORG $+1
$SG75373 DB	'tRNS after IDAT', 00H
$SG75378 DB	'tRNS before PLTE', 00H
	ORG $+7
$SG75380 DB	'bad tRNS len', 00H
	ORG $+3
$SG75382 DB	'tRNS with alpha', 00H
$SG75384 DB	'bad tRNS len', 00H
	ORG $+3
$SG75389 DB	'first not IHDR', 00H
	ORG $+1
$SG75391 DB	'no PLTE', 00H
$SG75396 DB	'stbi__parse_png_file', 00H
	ORG $+3
$SG75397 DB	'W:\cpp\void\rx\stb_image.h', 00H
	ORG $+5
$SG75399 DB	'outofmem', 00H
	ORG $+7
$SG75401 DB	'outofdata', 00H
	ORG $+6
$SG75404 DB	'first not IHDR', 00H
	ORG $+1
$SG75407 DB	'no IDAT', 00H
$SG75409 DB	'stbi__parse_png_file', 00H
	ORG $+3
$SG75410 DB	'W:\cpp\void\rx\stb_image.h', 00H
	ORG $+5
$SG75427 DB	'stbi__parse_png_file', 00H
	ORG $+3
$SG75428 DB	'W:\cpp\void\rx\stb_image.h', 00H
	ORG $+5
$SG75431 DB	'first not IHDR', 00H
	ORG $+1
$SG75466 DB	'bad req_comp', 00H
	ORG $+3
$SG75472 DB	'bad bits_per_channel', 00H
	ORG $+3
$SG75478 DB	'stbi__do_png', 00H
	ORG $+3
$SG75479 DB	'W:\cpp\void\rx\stb_image.h', 00H
	ORG $+5
$SG75480 DB	'stbi__do_png', 00H
	ORG $+3
$SG75481 DB	'W:\cpp\void\rx\stb_image.h', 00H
	ORG $+5
$SG75482 DB	'stbi__do_png', 00H
	ORG $+3
$SG75483 DB	'W:\cpp\void\rx\stb_image.h', 00H
	ORG $+5
?mul_table@?1??stbi__shiftsigned@@9@9 DD 00H		; `stbi__shiftsigned'::`2'::mul_table
	DD	0ffH
	DD	055H
	DD	049H
	DD	011H
	DD	021H
	DD	041H
	DD	081H
	DD	01H
	ORG $+4
?shift_table@?1??stbi__shiftsigned@@9@9 DD 00H		; `stbi__shiftsigned'::`2'::shift_table
	DD	00H
	DD	00H
	DD	01H
	DD	00H
	DD	02H
	DD	04H
	DD	06H
	DD	00H
	ORG $+4
$SG75582 DB	'W', 00H, ':', 00H, '\', 00H, 'c', 00H, 'p', 00H, 'p', 00H
	DB	'\', 00H, 'v', 00H, 'o', 00H, 'i', 00H, 'd', 00H, '\', 00H, 'r'
	DB	00H, 'x', 00H, '\', 00H, 's', 00H, 't', 00H, 'b', 00H, '_', 00H
	DB	'i', 00H, 'm', 00H, 'a', 00H, 'g', 00H, 'e', 00H, '.', 00H, 'h'
	DB	00H, 00H, 00H
	ORG $+2
$SG75583 DB	'v', 00H, ' ', 00H, '<', 00H, ' ', 00H, '2', 00H, '5', 00H
	DB	'6', 00H, 00H, 00H
$SG75584 DB	'W', 00H, ':', 00H, '\', 00H, 'c', 00H, 'p', 00H, 'p', 00H
	DB	'\', 00H, 'v', 00H, 'o', 00H, 'i', 00H, 'd', 00H, '\', 00H, 'r'
	DB	00H, 'x', 00H, '\', 00H, 's', 00H, 't', 00H, 'b', 00H, '_', 00H
	DB	'i', 00H, 'm', 00H, 'a', 00H, 'g', 00H, 'e', 00H, '.', 00H, 'h'
	DB	00H, 00H, 00H
	ORG $+2
$SG75585 DB	'b', 00H, 'i', 00H, 't', 00H, 's', 00H, ' ', 00H, '>', 00H
	DB	'=', 00H, ' ', 00H, '0', 00H, ' ', 00H, '&', 00H, '&', 00H, ' '
	DB	00H, 'b', 00H, 'i', 00H, 't', 00H, 's', 00H, ' ', 00H, '<', 00H
	DB	'=', 00H, ' ', 00H, '8', 00H, 00H, 00H
	ORG $+2
$SG75664 DB	'not BMP', 00H
$SG75666 DB	'bad BMP', 00H
$SG75668 DB	'unknown BMP', 00H
	ORG $+4
$SG75672 DB	'bad BMP', 00H
$SG75676 DB	'BMP RLE', 00H
$SG75678 DB	'BMP JPEG/PNG', 00H
	ORG $+3
$SG75680 DB	'bad BMP', 00H
$SG75692 DB	'bad BMP', 00H
$SG75693 DB	'bad BMP', 00H
$SG75695 DB	'bad BMP', 00H
$SG75843 DB	'too large', 00H
	ORG $+6
$SG75845 DB	'too large', 00H
	ORG $+6
$SG75852 DB	'bad offset', 00H
	ORG $+5
$SG75858 DB	'too large', 00H
	ORG $+6
$SG75860 DB	'outofmem', 00H
	ORG $+7
$SG75865 DB	'stbi__bmp_load', 00H
	ORG $+1
$SG75866 DB	'W:\cpp\void\rx\stb_image.h', 00H
	ORG $+5
$SG75867 DB	'invalid', 00H
$SG75875 DB	'stbi__bmp_load', 00H
	ORG $+1
$SG75876 DB	'W:\cpp\void\rx\stb_image.h', 00H
	ORG $+5
$SG75877 DB	'bad bpp', 00H
$SG75898 DB	'stbi__bmp_load', 00H
	ORG $+1
$SG75899 DB	'W:\cpp\void\rx\stb_image.h', 00H
	ORG $+5
$SG75900 DB	'bad masks', 00H
	ORG $+6
$SG75903 DB	'stbi__bmp_load', 00H
	ORG $+1
$SG75904 DB	'W:\cpp\void\rx\stb_image.h', 00H
	ORG $+5
$SG75905 DB	'bad masks', 00H
	ORG $+6
$SG76118 DB	'too large', 00H
	ORG $+6
$SG76120 DB	'too large', 00H
	ORG $+6
$SG76125 DB	'bad format', 00H
	ORG $+5
$SG76128 DB	'too large', 00H
	ORG $+6
$SG76130 DB	'outofmem', 00H
	ORG $+7
$SG76135 DB	'stbi__tga_load', 00H
	ORG $+1
$SG76136 DB	'W:\cpp\void\rx\stb_image.h', 00H
	ORG $+5
$SG76137 DB	'bad palette', 00H
	ORG $+4
$SG76139 DB	'stbi__tga_load', 00H
	ORG $+1
$SG76140 DB	'W:\cpp\void\rx\stb_image.h', 00H
	ORG $+5
$SG76141 DB	'outofmem', 00H
	ORG $+7
$SG76144 DB	'W', 00H, ':', 00H, '\', 00H, 'c', 00H, 'p', 00H, 'p', 00H
	DB	'\', 00H, 'v', 00H, 'o', 00H, 'i', 00H, 'd', 00H, '\', 00H, 'r'
	DB	00H, 'x', 00H, '\', 00H, 's', 00H, 't', 00H, 'b', 00H, '_', 00H
	DB	'i', 00H, 'm', 00H, 'a', 00H, 'g', 00H, 'e', 00H, '.', 00H, 'h'
	DB	00H, 00H, 00H
	ORG $+2
$SG76145 DB	't', 00H, 'g', 00H, 'a', 00H, '_', 00H, 'c', 00H, 'o', 00H
	DB	'm', 00H, 'p', 00H, ' ', 00H, '=', 00H, '=', 00H, ' ', 00H, 'S'
	DB	00H, 'T', 00H, 'B', 00H, 'I', 00H, '_', 00H, 'r', 00H, 'g', 00H
	DB	'b', 00H, 00H, 00H
	ORG $+6
$SG76147 DB	'stbi__tga_load', 00H
	ORG $+1
$SG76148 DB	'W:\cpp\void\rx\stb_image.h', 00H
	ORG $+5
$SG76149 DB	'stbi__tga_load', 00H
	ORG $+1
$SG76150 DB	'W:\cpp\void\rx\stb_image.h', 00H
	ORG $+5
$SG76151 DB	'bad palette', 00H
	ORG $+4
$SG76163 DB	'W', 00H, ':', 00H, '\', 00H, 'c', 00H, 'p', 00H, 'p', 00H
	DB	'\', 00H, 'v', 00H, 'o', 00H, 'i', 00H, 'd', 00H, '\', 00H, 'r'
	DB	00H, 'x', 00H, '\', 00H, 's', 00H, 't', 00H, 'b', 00H, '_', 00H
	DB	'i', 00H, 'm', 00H, 'a', 00H, 'g', 00H, 'e', 00H, '.', 00H, 'h'
	DB	00H, 00H, 00H
	ORG $+2
$SG76164 DB	't', 00H, 'g', 00H, 'a', 00H, '_', 00H, 'c', 00H, 'o', 00H
	DB	'm', 00H, 'p', 00H, ' ', 00H, '=', 00H, '=', 00H, ' ', 00H, 'S'
	DB	00H, 'T', 00H, 'B', 00H, 'I', 00H, '_', 00H, 'r', 00H, 'g', 00H
	DB	'b', 00H, 00H, 00H
	ORG $+6
$SG76167 DB	'stbi__tga_load', 00H
	ORG $+1
$SG76168 DB	'W:\cpp\void\rx\stb_image.h', 00H
	ORG $+5
$SG76331 DB	'not PSD', 00H
$SG76333 DB	'wrong version', 00H
	ORG $+2
$SG76336 DB	'wrong channel count', 00H
	ORG $+4
$SG76338 DB	'too large', 00H
	ORG $+6
$SG76340 DB	'too large', 00H
	ORG $+6
$SG76342 DB	'unsupported bit depth', 00H
	ORG $+2
$SG76344 DB	'wrong color format', 00H
	ORG $+5
$SG76346 DB	'bad compression', 00H
$SG76348 DB	'too large', 00H
	ORG $+6
$SG76352 DB	'outofmem', 00H
	ORG $+7
$SG76358 DB	'stbi__psd_load', 00H
	ORG $+1
$SG76359 DB	'W:\cpp\void\rx\stb_image.h', 00H
	ORG $+5
$SG76360 DB	'corrupt', 00H
$SG76400 DB	'S', 080H, 0f6H, '4', 00H
	ORG $+3
$SG76402 DB	'PICT', 00H
	ORG $+3
$SG76427 DB	'bad file', 00H
	ORG $+7
$SG76533 DB	'bad format', 00H
	ORG $+5
$SG76535 DB	'bad file', 00H
	ORG $+7
$SG76537 DB	'bad format', 00H
	ORG $+5
$SG76539 DB	'bad format', 00H
	ORG $+5
$SG76544 DB	'bad file', 00H
	ORG $+7
$SG76549 DB	'bad file', 00H
	ORG $+7
$SG76555 DB	'bad file', 00H
	ORG $+7
$SG76558 DB	'bad file', 00H
	ORG $+7
$SG76605 DB	'too large', 00H
	ORG $+6
$SG76607 DB	'too large', 00H
	ORG $+6
$SG76609 DB	'bad file', 00H
	ORG $+7
$SG76611 DB	'too large', 00H
	ORG $+6
$SG76613 DB	'outofmem', 00H
	ORG $+7
$SG76615 DB	'stbi__pic_load', 00H
	ORG $+1
$SG76616 DB	'W:\cpp\void\rx\stb_image.h', 00H
	ORG $+5
$SG76694 DB	'not GIF', 00H
$SG76696 DB	'not GIF', 00H
$SG76698 DB	'not GIF', 00H
$SG76701 DB	'too large', 00H
	ORG $+6
$SG76703 DB	'too large', 00H
	ORG $+6
$SG76721 DB	'outofmem', 00H
	ORG $+7
$SG76723 DB	'stbi__gif_info_raw', 00H
	ORG $+5
$SG76724 DB	'W:\cpp\void\rx\stb_image.h', 00H
	ORG $+5
$SG76727 DB	'stbi__gif_info_raw', 00H
	ORG $+5
$SG76728 DB	'W:\cpp\void\rx\stb_image.h', 00H
	ORG $+5
$SG76805 DB	'no clear code', 00H
	ORG $+2
$SG76809 DB	'too many codes', 00H
	ORG $+1
$SG76811 DB	'illegal code in raster', 00H
	ORG $+1
$SG76813 DB	'illegal code in raster', 00H
	ORG $+1
$SG76886 DB	'too large', 00H
	ORG $+6
$SG76889 DB	'outofmem', 00H
	ORG $+7
$SG76900 DB	'bad Image Descriptor', 00H
	ORG $+3
$SG76908 DB	'missing color table', 00H
	ORG $+4
$SG76922 DB	'unknown code', 00H
	ORG $+3
$SG76935 DB	'stbi__load_gif_main_outofmem', 00H
	ORG $+3
$SG76936 DB	'W:\cpp\void\rx\stb_image.h', 00H
	ORG $+5
$SG76937 DB	'stbi__load_gif_main_outofmem', 00H
	ORG $+3
$SG76938 DB	'W:\cpp\void\rx\stb_image.h', 00H
	ORG $+5
$SG76939 DB	'stbi__load_gif_main_outofmem', 00H
	ORG $+3
$SG76940 DB	'W:\cpp\void\rx\stb_image.h', 00H
	ORG $+5
$SG76942 DB	'stbi__load_gif_main_outofmem', 00H
	ORG $+3
$SG76943 DB	'W:\cpp\void\rx\stb_image.h', 00H
	ORG $+5
$SG76945 DB	'stbi__load_gif_main_outofmem', 00H
	ORG $+3
$SG76946 DB	'W:\cpp\void\rx\stb_image.h', 00H
	ORG $+5
$SG76947 DB	'outofmem', 00H
	ORG $+7
$SG76999 DB	'stbi__load_gif_main', 00H
	ORG $+4
$SG77000 DB	'W:\cpp\void\rx\stb_image.h', 00H
	ORG $+5
$SG77004 DB	'stbi__load_gif_main', 00H
	ORG $+4
$SG77005 DB	'W:\cpp\void\rx\stb_image.h', 00H
	ORG $+5
$SG77012 DB	'stbi__load_gif_main', 00H
	ORG $+4
$SG77013 DB	'W:\cpp\void\rx\stb_image.h', 00H
	ORG $+5
$SG77014 DB	'stbi__load_gif_main', 00H
	ORG $+4
$SG77015 DB	'W:\cpp\void\rx\stb_image.h', 00H
	ORG $+5
$SG77016 DB	'stbi__load_gif_main', 00H
	ORG $+4
$SG77017 DB	'W:\cpp\void\rx\stb_image.h', 00H
	ORG $+5
$SG77019 DB	'not GIF', 00H
$SG77042 DB	'stbi__gif_load', 00H
	ORG $+1
$SG77043 DB	'W:\cpp\void\rx\stb_image.h', 00H
	ORG $+5
$SG77044 DB	'stbi__gif_load', 00H
	ORG $+1
$SG77045 DB	'W:\cpp\void\rx\stb_image.h', 00H
	ORG $+5
$SG77046 DB	'stbi__gif_load', 00H
	ORG $+1
$SG77047 DB	'W:\cpp\void\rx\stb_image.h', 00H
	ORG $+5
$SG77072 DB	'#?RADIANCE', 0aH, 00H
	ORG $+4
$SG77074 DB	'#?RGBE', 0aH, 00H
$SG77238 DB	'#?RADIANCE', 00H
	ORG $+5
$SG77240 DB	'not HDR', 00H
$SG77243 DB	'FORMAT=32-bit_rle_rgbe', 00H
	ORG $+1
$SG77245 DB	'unsupported format', 00H
	ORG $+5
$SG77248 DB	'unsupported data layout', 00H
$SG77251 DB	'unsupported data layout', 00H
$SG77253 DB	'too large', 00H
	ORG $+6
$SG77255 DB	'too large', 00H
	ORG $+6
$SG77259 DB	'too large', 00H
	ORG $+6
$SG77261 DB	'outofmem', 00H
	ORG $+7
$SG77267 DB	'stbi__hdr_load', 00H
	ORG $+1
$SG77268 DB	'W:\cpp\void\rx\stb_image.h', 00H
	ORG $+5
$SG77270 DB	'stbi__hdr_load', 00H
	ORG $+1
$SG77271 DB	'W:\cpp\void\rx\stb_image.h', 00H
	ORG $+5
$SG77272 DB	'stbi__hdr_load', 00H
	ORG $+1
$SG77273 DB	'W:\cpp\void\rx\stb_image.h', 00H
	ORG $+5
$SG77274 DB	'invalid decoded scanline length', 00H
$SG77277 DB	'stbi__hdr_load', 00H
	ORG $+1
$SG77278 DB	'W:\cpp\void\rx\stb_image.h', 00H
	ORG $+5
$SG77279 DB	'outofmem', 00H
	ORG $+7
$SG77283 DB	'stbi__hdr_load', 00H
	ORG $+1
$SG77284 DB	'W:\cpp\void\rx\stb_image.h', 00H
	ORG $+5
$SG77285 DB	'stbi__hdr_load', 00H
	ORG $+1
$SG77286 DB	'W:\cpp\void\rx\stb_image.h', 00H
	ORG $+5
$SG77287 DB	'corrupt', 00H
$SG77289 DB	'stbi__hdr_load', 00H
	ORG $+1
$SG77290 DB	'W:\cpp\void\rx\stb_image.h', 00H
	ORG $+5
$SG77291 DB	'stbi__hdr_load', 00H
	ORG $+1
$SG77292 DB	'W:\cpp\void\rx\stb_image.h', 00H
	ORG $+5
$SG77293 DB	'corrupt', 00H
$SG77295 DB	'stbi__hdr_load', 00H
	ORG $+1
$SG77296 DB	'W:\cpp\void\rx\stb_image.h', 00H
	ORG $+5
$SG77324 DB	'FORMAT=32-bit_rle_rgbe', 00H
	ORG $+1
$SG77403 DB	'S', 080H, 0f6H, '4', 00H
	ORG $+3
$SG77456 DB	'too large', 00H
	ORG $+6
$SG77458 DB	'too large', 00H
	ORG $+6
$SG77461 DB	'too large', 00H
	ORG $+6
$SG77463 DB	'outofmem', 00H
	ORG $+7
$SG77525 DB	'max value > 65535', 00H
	ORG $+6
$SG77554 DB	'unknown image type', 00H
	ORG $+5
$SG77575 DB	'can''t fopen', 00H
	ORG $+4
$SG77595 DB	'can''t fopen', 00H
$SG81184 DB	'IHDR', 00H
	ORG $+7
stbir__srgb_uchar_to_linear_float DD 000000000r	; 0
	DD	0399f6230r			; 0.000304
	DD	03a1f1f15r			; 0.000607
	DD	03a6ed02dr			; 0.000911
	DD	03a9f1f15r			; 0.001214
	DD	03ac6f7a1r			; 0.001518
	DD	03aeeae9fr			; 0.001821
	DD	03b0b4396r			; 0.002125
	DD	03b1f1f15r			; 0.002428
	DD	03b330b5br			; 0.002732
	DD	03b46e6dar			; 0.003035
	DD	03b5b5958r			; 0.003347
	DD	03b70f9d3r			; 0.003677
	DD	03b83e426r			; 0.004025
	DD	03b8fe261r			; 0.004391
	DD	03b9c8861r			; 0.004777
	DD	03ba9cdc4r			; 0.005182
	DD	03bb7aa26r			; 0.005605
	DD	03bc636b1r			; 0.006049
	DD	03bd5629er			; 0.006512
	DD	03be53650r			; 0.006995
	DD	03bf5ba2cr			; 0.007499
	DD	03c0372e7r			; 0.008023
	DD	03c0c60ccr			; 0.008568
	DD	03c15a6c6r			; 0.009134
	DD	03c1f44d4r			; 0.009721
	DD	03c293f29r			; 0.01033
	DD	03c339192r			; 0.01096
	DD	03c3e4042r			; 0.011612
	DD	03c494b38r			; 0.012286
	DD	03c54b6a6r			; 0.012983
	DD	03c607e5ar			; 0.013702
	DD	03c6ca687r			; 0.014444
	DD	03c792f2br			; 0.015209
	DD	03c830a0br			; 0.015996
	DD	03c89aed5r			; 0.016807
	DD	03c9085f5r			; 0.017642
	DD	03c978d50r			; 0.0185
	DD	03c9ec700r			; 0.019382
	DD	03ca6351er			; 0.020289
	DD	03cadd378r			; 0.021219
	DD	03cb5a640r			; 0.022174
	DD	03cbdab5cr			; 0.023153
	DD	03cc5e6ffr			; 0.024158
	DD	03cce54f8r			; 0.025187
	DD	03cd6f75er			; 0.026241
	DD	03cdfd04ar			; 0.027321
	DD	03ce8dda5r			; 0.028426
	DD	03cf22186r			; 0.029557
	DD	03cfb99d4r			; 0.030713
	DD	03d02a561r			; 0.031896
	DD	03d07991cr			; 0.033105
	DD	03d0ca81ar			; 0.03434
	DD	03d11d25br			; 0.035601
	DD	03d1718ecr			; 0.036889
	DD	03d1c7bccr			; 0.038204
	DD	03d21fafdr			; 0.039546
	DD	03d27967dr			; 0.040915
	DD	03d2d4e4dr			; 0.042311
	DD	03d332379r			; 0.043735
	DD	03d3914f5r			; 0.045186
	DD	03d3f23cdr			; 0.046665
	DD	03d455001r			; 0.048172
	DD	03d4b9991r			; 0.049707
	DD	03d51ff71r			; 0.051269
	DD	03d5884c7r			; 0.052861
	DD	03d5f266cr			; 0.05448
	DD	03d65e679r			; 0.056128
	DD	03d6cc4f0r			; 0.057805
	DD	03d73c1cer			; 0.059511
	DD	03d7add16r			; 0.061246
	DD	03d810b63r			; 0.06301
	DD	03d84b76fr			; 0.064803
	DD	03d887336r			; 0.066626
	DD	03d8c3e32r			; 0.068478
	DD	03d9018e7r			; 0.07036
	DD	03d940358r			; 0.072272
	DD	03d97fd82r			; 0.074214
	DD	03d9c06e2r			; 0.076185
	DD	03da02081r			; 0.078187
	DD	03da44a62r			; 0.08022
	DD	03da883fdr			; 0.082283
	DD	03daccd53r			; 0.084376
	DD	03db126e9r			; 0.0865
	DD	03db59147r			; 0.088656
	DD	03dba0b5fr			; 0.090842
	DD	03dbe95b8r			; 0.093059
	DD	03dc33051r			; 0.095307
	DD	03dc7dbb1r			; 0.097587
	DD	03dcc97d9r			; 0.099899
	DD	03dd16441r			; 0.102242
	DD	03dd640ear			; 0.104616
	DD	03ddb2ee0r			; 0.107023
	DD	03de02d9dr			; 0.109462
	DD	03de53c9br			; 0.111932
	DD	03dea5ce6r			; 0.114435
	DD	03def8e7er			; 0.116971
	DD	03df4d057r			; 0.119538
	DD	03dfa2403r			; 0.122139
	DD	03dff8876r			; 0.124772
	DD	03e027f1br			; 0.127438
	DD	03e05425fr			; 0.130136
	DD	03e080e8dr			; 0.132868
	DD	03e0ae361r			; 0.135633
	DD	03e0dc11er			; 0.138432
	DD	03e10a73fr			; 0.141263
	DD	03e13964ar			; 0.144128
	DD	03e168e3fr			; 0.147027
	DD	03e198f1dr			; 0.14996
	DD	03e1c98a2r			; 0.152926
	DD	03e1fab11r			; 0.155926
	DD	03e22c6acr			; 0.158961
	DD	03e25eaeer			; 0.162029
	DD	03e29185dr			; 0.165132
	DD	03e2c4eb5r			; 0.168269
	DD	03e2f8e3br			; 0.171441
	DD	03e32d6aar			; 0.174647
	DD	03e362846r			; 0.177888
	DD	03e39830er			; 0.181164
	DD	03e3ce704r			; 0.184475
	DD	03e405426r			; 0.187821
	DD	03e43ca75r			; 0.191202
	DD	03e4749f1r			; 0.194618
	DD	03e4ad29ar			; 0.198069
	DD	03e4e64b2r			; 0.201556
	DD	03e52003br			; 0.205079
	DD	03e55a4f0r			; 0.208637
	DD	03e595315r			; 0.212231
	DD	03e5d0aaar			; 0.215861
	DD	03e60cb6cr			; 0.219526
	DD	03e6495e1r			; 0.223228
	DD	03e6869c6r			; 0.226966
	DD	03e6c471br			; 0.23074
	DD	03e702e23r			; 0.234551
	DD	03e741e9br			; 0.238398
	DD	03e781883r			; 0.242281
	DD	03e7c1c1dr			; 0.246201
	DD	03e8014b6r			; 0.250158
	DD	03e822036r			; 0.254152
	DD	03e843090r			; 0.258183
	DD	03e8645c3r			; 0.262251
	DD	03e885fd0r			; 0.266356
	DD	03e8a7eb7r			; 0.270498
	DD	03e8ca277r			; 0.274677
	DD	03e8ecb32r			; 0.278894
	DD	03e90f8e8r			; 0.283149
	DD	03e932b77r			; 0.287441
	DD	03e956302r			; 0.291771
	DD	03e979f66r			; 0.296138
	DD	03e99e0e7r			; 0.300544
	DD	03e9c2742r			; 0.304987
	DD	03e9e72b9r			; 0.309469
	DD	03ea0c32br			; 0.313989
	DD	03ea31898r			; 0.318547
	DD	03ea57300r			; 0.323143
	DD	03ea7d285r			; 0.327778
	DD	03eaa3726r			; 0.332452
	DD	03eaca0c3r			; 0.337164
	DD	03eaf0f5ar			; 0.341914
	DD	03eb18330r			; 0.346704
	DD	03eb3fc22r			; 0.351533
	DD	03eb67a10r			; 0.3564
	DD	03eb8fd3br			; 0.361307
	DD	03ebb8583r			; 0.366253
	DD	03ebe12e8r			; 0.371238
	DD	03ec0a56ar			; 0.376262
	DD	03ec33d29r			; 0.381326
	DD	03ec5da27r			; 0.38643
	DD	03ec87c42r			; 0.391573
	DD	03ecb2379r			; 0.396755
	DD	03ecdd00fr			; 0.401978
	DD	03ed081c3r			; 0.40724
	DD	03ed338d6r			; 0.412543
	DD	03ed5f506r			; 0.417885
	DD	03ed8b695r			; 0.423268
	DD	03edb7d63r			; 0.428691
	DD	03ede496fr			; 0.434154
	DD	03ee11ab9r			; 0.439657
	DD	03ee3f163r			; 0.445201
	DD	03ee6cd6cr			; 0.450786
	DD	03ee9aeb4r			; 0.456411
	DD	03eec955br			; 0.462077
	DD	03eef8162r			; 0.467784
	DD	03ef272c9r			; 0.473532
	DD	03ef5696er			; 0.47932
	DD	03ef86595r			; 0.48515
	DD	03efb671br			; 0.491021
	DD	03efe6e01r			; 0.496933
	DD	03f00bd34r			; 0.502887
	DD	03f024606r			; 0.508881
	DD	03f03d1abr			; 0.514918
	DD	03f055ffer			; 0.520996
	DD	03f06f102r			; 0.527115
	DD	03f0884c7r			; 0.533276
	DD	03f0a1b5cr			; 0.53948
	DD	03f0bb4a2r			; 0.545725
	DD	03f0d5098r			; 0.552011
	DD	03f0eef5fr			; 0.55834
	DD	03f1090f7r			; 0.564712
	DD	03f12353fr			; 0.571125
	DD	03f13dc59r			; 0.577581
	DD	03f158623r			; 0.584078
	DD	03f1732cfr			; 0.590619
	DD	03f18e23br			; 0.597202
	DD	03f1a9468r			; 0.603827
	DD	03f1c4977r			; 0.610496
	DD	03f1e0147r			; 0.617207
	DD	03f1fbbd8r			; 0.62396
	DD	03f21794ar			; 0.630757
	DD	03f23398fr			; 0.637597
	DD	03f24fca4r			; 0.64448
	DD	03f26c28br			; 0.651406
	DD	03f288b44r			; 0.658375
	DD	03f2a56cdr			; 0.665387
	DD	03f2c2539r			; 0.672443
	DD	03f2df688r			; 0.679543
	DD	03f2fca97r			; 0.686685
	DD	03f31a198r			; 0.693872
	DD	03f337b6cr			; 0.701102
	DD	03f355821r			; 0.708376
	DD	03f3737b9r			; 0.715694
	DD	03f391a22r			; 0.723055
	DD	03f3aff7er			; 0.730461
	DD	03f3ce7bcr			; 0.737911
	DD	03f3ed2ccr			; 0.745404
	DD	03f40c0cfr			; 0.752942
	DD	03f42b1c4r			; 0.760525
	DD	03f44a58br			; 0.768151
	DD	03f469c45r			; 0.775822
	DD	03f4895f2r			; 0.783538
	DD	03f4a9281r			; 0.791298
	DD	03f4c9204r			; 0.799103
	DD	03f4e9468r			; 0.806952
	DD	03f5099d0r			; 0.814847
	DD	03f52a21ar			; 0.822786
	DD	03f54ad58r			; 0.83077
	DD	03f56bb88r			; 0.838799
	DD	03f58ccabr			; 0.846873
	DD	03f5ae0d2r			; 0.854993
	DD	03f5cf7dbr			; 0.863157
	DD	03f5f11e8r			; 0.871367
	DD	03f612ee8r			; 0.879622
	DD	03f634eecr			; 0.887923
	DD	03f6571e3r			; 0.896269
	DD	03f6797ddr			; 0.904661
	DD	03f69c0dbr			; 0.913099
	DD	03f6becccr			; 0.921582
	DD	03f6e1bc1r			; 0.930111
	DD	03f704dbar			; 0.938686
	DD	03f7282b6r			; 0.947307
	DD	03f74bab6r			; 0.955974
	DD	03f76f5a9r			; 0.964686
	DD	03f7933b1r			; 0.973445
	DD	03f7b74cdr			; 0.982251
	DD	03f7db8dcr			; 0.991102
	DD	03f800000r			; 1
$SG78121 DB	'W', 00H, ':', 00H, '\', 00H, 'c', 00H, 'p', 00H, 'p', 00H
	DB	'\', 00H, 'v', 00H, 'o', 00H, 'i', 00H, 'd', 00H, '\', 00H, 'r'
	DB	00H, 'x', 00H, '\', 00H, 's', 00H, 't', 00H, 'b', 00H, '_', 00H
	DB	'i', 00H, 'm', 00H, 'a', 00H, 'g', 00H, 'e', 00H, '_', 00H, 'r'
	DB	00H, 'e', 00H, 's', 00H, 'i', 00H, 'z', 00H, 'e', 00H, '.', 00H
	DB	'h', 00H, 00H, 00H
	ORG $+4
$SG78122 DB	's', 00H, 'c', 00H, 'a', 00H, 'l', 00H, 'e', 00H, ' ', 00H
	DB	'<', 00H, '=', 00H, ' ', 00H, '1', 00H, 00H, 00H
	ORG $+2
$SG78133 DB	'W', 00H, ':', 00H, '\', 00H, 'c', 00H, 'p', 00H, 'p', 00H
	DB	'\', 00H, 'v', 00H, 'o', 00H, 'i', 00H, 'd', 00H, '\', 00H, 'r'
	DB	00H, 'x', 00H, '\', 00H, 's', 00H, 't', 00H, 'b', 00H, '_', 00H
	DB	'i', 00H, 'm', 00H, 'a', 00H, 'g', 00H, 'e', 00H, '_', 00H, 'r'
	DB	00H, 'e', 00H, 's', 00H, 'i', 00H, 'z', 00H, 'e', 00H, '.', 00H
	DB	'h', 00H, 00H, 00H
	ORG $+4
$SG78134 DB	's', 00H, 'c', 00H, 'a', 00H, 'l', 00H, 'e', 00H, ' ', 00H
	DB	'<', 00H, '=', 00H, ' ', 00H, '1', 00H, 00H, 00H
	ORG $+2
stbir__filter_info_table DQ 0000000000000000H
	DQ	FLAT:stbir__support_zero
	DQ	FLAT:stbir__filter_trapezoid
	DQ	FLAT:stbir__support_trapezoid
	DQ	FLAT:stbir__filter_triangle
	DQ	FLAT:stbir__support_one
	DQ	FLAT:stbir__filter_cubic
	DQ	FLAT:stbir__support_two
	DQ	FLAT:stbir__filter_catmullrom
	DQ	FLAT:stbir__support_two
	DQ	FLAT:stbir__filter_mitchell
	DQ	FLAT:stbir__support_two
$SG78219 DB	'W', 00H, ':', 00H, '\', 00H, 'c', 00H, 'p', 00H, 'p', 00H
	DB	'\', 00H, 'v', 00H, 'o', 00H, 'i', 00H, 'd', 00H, '\', 00H, 'r'
	DB	00H, 'x', 00H, '\', 00H, 's', 00H, 't', 00H, 'b', 00H, '_', 00H
	DB	'i', 00H, 'm', 00H, 'a', 00H, 'g', 00H, 'e', 00H, '_', 00H, 'r'
	DB	00H, 'e', 00H, 's', 00H, 'i', 00H, 'z', 00H, 'e', 00H, '.', 00H
	DB	'h', 00H, 00H, 00H
	ORG $+4
$SG78220 DB	'f', 00H, 'i', 00H, 'l', 00H, 't', 00H, 'e', 00H, 'r', 00H
	DB	' ', 00H, '!', 00H, '=', 00H, ' ', 00H, '0', 00H, 00H, 00H
$SG78221 DB	'W', 00H, ':', 00H, '\', 00H, 'c', 00H, 'p', 00H, 'p', 00H
	DB	'\', 00H, 'v', 00H, 'o', 00H, 'i', 00H, 'd', 00H, '\', 00H, 'r'
	DB	00H, 'x', 00H, '\', 00H, 's', 00H, 't', 00H, 'b', 00H, '_', 00H
	DB	'i', 00H, 'm', 00H, 'a', 00H, 'g', 00H, 'e', 00H, '_', 00H, 'r'
	DB	00H, 'e', 00H, 's', 00H, 'i', 00H, 'z', 00H, 'e', 00H, '.', 00H
	DB	'h', 00H, 00H, 00H
$SG81185 DB	'IHDR', 00H
	ORG $+7
$SG78222 DB	'f', 00H, 'i', 00H, 'l', 00H, 't', 00H, 'e', 00H, 'r', 00H
	DB	' ', 00H, '<', 00H, ' ', 00H, '(', 00H, 's', 00H, 'i', 00H, 'z'
	DB	00H, 'e', 00H, 'o', 00H, 'f', 00H, '(', 00H, '(', 00H, 's', 00H
	DB	't', 00H, 'b', 00H, 'i', 00H, 'r', 00H, '_', 00H, '_', 00H, 'f'
	DB	00H, 'i', 00H, 'l', 00H, 't', 00H, 'e', 00H, 'r', 00H, '_', 00H
	DB	'i', 00H, 'n', 00H, 'f', 00H, 'o', 00H, '_', 00H, 't', 00H, 'a'
	DB	00H, 'b', 00H, 'l', 00H, 'e', 00H, ')', 00H, ')', 00H, '/', 00H
	DB	's', 00H, 'i', 00H, 'z', 00H, 'e', 00H, 'o', 00H, 'f', 00H, '('
	DB	00H, '(', 00H, 's', 00H, 't', 00H, 'b', 00H, 'i', 00H, 'r', 00H
	DB	'_', 00H, '_', 00H, 'f', 00H, 'i', 00H, 'l', 00H, 't', 00H, 'e'
	DB	00H, 'r', 00H, '_', 00H, 'i', 00H, 'n', 00H, 'f', 00H, 'o', 00H
	DB	'_', 00H, 't', 00H, 'a', 00H, 'b', 00H, 'l', 00H, 'e', 00H, ')'
	DB	00H, '[', 00H, '0', 00H, ']', 00H, ')', 00H, ')', 00H, 00H, 00H
$SG78310 DB	'Unimplemented edge type', 00H
$SG78311 DB	'W', 00H, ':', 00H, '\', 00H, 'c', 00H, 'p', 00H, 'p', 00H
	DB	'\', 00H, 'v', 00H, 'o', 00H, 'i', 00H, 'd', 00H, '\', 00H, 'r'
	DB	00H, 'x', 00H, '\', 00H, 's', 00H, 't', 00H, 'b', 00H, '_', 00H
	DB	'i', 00H, 'm', 00H, 'a', 00H, 'g', 00H, 'e', 00H, '_', 00H, 'r'
	DB	00H, 'e', 00H, 's', 00H, 'i', 00H, 'z', 00H, 'e', 00H, '.', 00H
	DB	'h', 00H, 00H, 00H
	ORG $+4
$SG78312 DB	'!', 00H, '"', 00H, 'U', 00H, 'n', 00H, 'i', 00H, 'm', 00H
	DB	'p', 00H, 'l', 00H, 'e', 00H, 'm', 00H, 'e', 00H, 'n', 00H, 't'
	DB	00H, 'e', 00H, 'd', 00H, ' ', 00H, 'e', 00H, 'd', 00H, 'g', 00H
	DB	'e', 00H, ' ', 00H, 't', 00H, 'y', 00H, 'p', 00H, 'e', 00H, '"'
	DB	00H, 00H, 00H
	ORG $+2
$SG78409 DB	'W', 00H, ':', 00H, '\', 00H, 'c', 00H, 'p', 00H, 'p', 00H
	DB	'\', 00H, 'v', 00H, 'o', 00H, 'i', 00H, 'd', 00H, '\', 00H, 'r'
	DB	00H, 'x', 00H, '\', 00H, 's', 00H, 't', 00H, 'b', 00H, '_', 00H
	DB	'i', 00H, 'm', 00H, 'a', 00H, 'g', 00H, 'e', 00H, '_', 00H, 'r'
	DB	00H, 'e', 00H, 's', 00H, 'i', 00H, 'z', 00H, 'e', 00H, '.', 00H
	DB	'h', 00H, 00H, 00H
$SG81186 DB	'IHDR', 00H
	ORG $+7
$SG78410 DB	'i', 00H, 'n', 00H, '_', 00H, 'l', 00H, 'a', 00H, 's', 00H
	DB	't', 00H, '_', 00H, 'p', 00H, 'i', 00H, 'x', 00H, 'e', 00H, 'l'
	DB	00H, ' ', 00H, '-', 00H, ' ', 00H, 'i', 00H, 'n', 00H, '_', 00H
	DB	'f', 00H, 'i', 00H, 'r', 00H, 's', 00H, 't', 00H, '_', 00H, 'p'
	DB	00H, 'i', 00H, 'x', 00H, 'e', 00H, 'l', 00H, ' ', 00H, '<', 00H
	DB	'=', 00H, ' ', 00H, '(', 00H, 'i', 00H, 'n', 00H, 't', 00H, ')'
	DB	00H, 'c', 00H, 'e', 00H, 'i', 00H, 'l', 00H, '(', 00H, 's', 00H
	DB	't', 00H, 'b', 00H, 'i', 00H, 'r', 00H, '_', 00H, '_', 00H, 'f'
	DB	00H, 'i', 00H, 'l', 00H, 't', 00H, 'e', 00H, 'r', 00H, '_', 00H
	DB	'i', 00H, 'n', 00H, 'f', 00H, 'o', 00H, '_', 00H, 't', 00H, 'a'
	DB	00H, 'b', 00H, 'l', 00H, 'e', 00H, '[', 00H, 'f', 00H, 'i', 00H
	DB	'l', 00H, 't', 00H, 'e', 00H, 'r', 00H, ']', 00H, '.', 00H, 's'
	DB	00H, 'u', 00H, 'p', 00H, 'p', 00H, 'o', 00H, 'r', 00H, 't', 00H
	DB	'(', 00H, '1', 00H, '/', 00H, 's', 00H, 'c', 00H, 'a', 00H, 'l'
	DB	00H, 'e', 00H, ')', 00H, ' ', 00H, '*', 00H, ' ', 00H, '2', 00H
	DB	')', 00H, 00H, 00H
	ORG $+2
$SG78415 DB	't', 00H, 'o', 00H, 't', 00H, 'a', 00H, 'l', 00H, '_', 00H
	DB	'f', 00H, 'i', 00H, 'l', 00H, 't', 00H, 'e', 00H, 'r', 00H, ' '
	DB	00H, '>', 00H, ' ', 00H, '0', 00H, '.', 00H, '9', 00H, 00H, 00H
	ORG $+2
$SG78411 DB	'W', 00H, ':', 00H, '\', 00H, 'c', 00H, 'p', 00H, 'p', 00H
	DB	'\', 00H, 'v', 00H, 'o', 00H, 'i', 00H, 'd', 00H, '\', 00H, 'r'
	DB	00H, 'x', 00H, '\', 00H, 's', 00H, 't', 00H, 'b', 00H, '_', 00H
	DB	'i', 00H, 'm', 00H, 'a', 00H, 'g', 00H, 'e', 00H, '_', 00H, 'r'
	DB	00H, 'e', 00H, 's', 00H, 'i', 00H, 'z', 00H, 'e', 00H, '.', 00H
	DB	'h', 00H, 00H, 00H
$SG81187 DB	'IHDR', 00H
	ORG $+7
$SG78412 DB	'c', 00H, 'o', 00H, 'n', 00H, 't', 00H, 'r', 00H, 'i', 00H
	DB	'b', 00H, 'u', 00H, 't', 00H, 'o', 00H, 'r', 00H, '-', 00H, '>'
	DB	00H, 'n', 00H, '1', 00H, ' ', 00H, '>', 00H, '=', 00H, ' ', 00H
	DB	'c', 00H, 'o', 00H, 'n', 00H, 't', 00H, 'r', 00H, 'i', 00H, 'b'
	DB	00H, 'u', 00H, 't', 00H, 'o', 00H, 'r', 00H, '-', 00H, '>', 00H
	DB	'n', 00H, '0', 00H, 00H, 00H
	ORG $+2
$SG78417 DB	't', 00H, 'o', 00H, 't', 00H, 'a', 00H, 'l', 00H, '_', 00H
	DB	'f', 00H, 'i', 00H, 'l', 00H, 't', 00H, 'e', 00H, 'r', 00H, ' '
	DB	00H, '<', 00H, ' ', 00H, '1', 00H, '.', 00H, '1', 00H, 'f', 00H
	DB	00H, 00H
$SG78414 DB	'W', 00H, ':', 00H, '\', 00H, 'c', 00H, 'p', 00H, 'p', 00H
	DB	'\', 00H, 'v', 00H, 'o', 00H, 'i', 00H, 'd', 00H, '\', 00H, 'r'
	DB	00H, 'x', 00H, '\', 00H, 's', 00H, 't', 00H, 'b', 00H, '_', 00H
	DB	'i', 00H, 'm', 00H, 'a', 00H, 'g', 00H, 'e', 00H, '_', 00H, 'r'
	DB	00H, 'e', 00H, 's', 00H, 'i', 00H, 'z', 00H, 'e', 00H, '.', 00H
	DB	'h', 00H, 00H, 00H
$SG81188 DB	'IDAT', 00H
	ORG $+7
$SG78416 DB	'W', 00H, ':', 00H, '\', 00H, 'c', 00H, 'p', 00H, 'p', 00H
	DB	'\', 00H, 'v', 00H, 'o', 00H, 'i', 00H, 'd', 00H, '\', 00H, 'r'
	DB	00H, 'x', 00H, '\', 00H, 's', 00H, 't', 00H, 'b', 00H, '_', 00H
	DB	'i', 00H, 'm', 00H, 'a', 00H, 'g', 00H, 'e', 00H, '_', 00H, 'r'
	DB	00H, 'e', 00H, 's', 00H, 'i', 00H, 'z', 00H, 'e', 00H, '.', 00H
	DB	'h', 00H, 00H, 00H
$SG81189 DB	'IDAT', 00H
	ORG $+7
$SG78450 DB	'W', 00H, ':', 00H, '\', 00H, 'c', 00H, 'p', 00H, 'p', 00H
	DB	'\', 00H, 'v', 00H, 'o', 00H, 'i', 00H, 'd', 00H, '\', 00H, 'r'
	DB	00H, 'x', 00H, '\', 00H, 's', 00H, 't', 00H, 'b', 00H, '_', 00H
	DB	'i', 00H, 'm', 00H, 'a', 00H, 'g', 00H, 'e', 00H, '_', 00H, 'r'
	DB	00H, 'e', 00H, 's', 00H, 'i', 00H, 'z', 00H, 'e', 00H, '.', 00H
	DB	'h', 00H, 00H, 00H
$SG81190 DB	'IDAT', 00H
	ORG $+7
$SG78451 DB	'o', 00H, 'u', 00H, 't', 00H, '_', 00H, 'l', 00H, 'a', 00H
	DB	's', 00H, 't', 00H, '_', 00H, 'p', 00H, 'i', 00H, 'x', 00H, 'e'
	DB	00H, 'l', 00H, ' ', 00H, '-', 00H, ' ', 00H, 'o', 00H, 'u', 00H
	DB	't', 00H, '_', 00H, 'f', 00H, 'i', 00H, 'r', 00H, 's', 00H, 't'
	DB	00H, '_', 00H, 'p', 00H, 'i', 00H, 'x', 00H, 'e', 00H, 'l', 00H
	DB	' ', 00H, '<', 00H, '=', 00H, ' ', 00H, '(', 00H, 'i', 00H, 'n'
	DB	00H, 't', 00H, ')', 00H, 'c', 00H, 'e', 00H, 'i', 00H, 'l', 00H
	DB	'(', 00H, 's', 00H, 't', 00H, 'b', 00H, 'i', 00H, 'r', 00H, '_'
	DB	00H, '_', 00H, 'f', 00H, 'i', 00H, 'l', 00H, 't', 00H, 'e', 00H
	DB	'r', 00H, '_', 00H, 'i', 00H, 'n', 00H, 'f', 00H, 'o', 00H, '_'
	DB	00H, 't', 00H, 'a', 00H, 'b', 00H, 'l', 00H, 'e', 00H, '[', 00H
	DB	'f', 00H, 'i', 00H, 'l', 00H, 't', 00H, 'e', 00H, 'r', 00H, ']'
	DB	00H, '.', 00H, 's', 00H, 'u', 00H, 'p', 00H, 'p', 00H, 'o', 00H
	DB	'r', 00H, 't', 00H, '(', 00H, 's', 00H, 'c', 00H, 'a', 00H, 'l'
	DB	00H, 'e', 00H, '_', 00H, 'r', 00H, 'a', 00H, 't', 00H, 'i', 00H
	DB	'o', 00H, ')', 00H, ' ', 00H, '*', 00H, ' ', 00H, '2', 00H, ')'
	DB	00H, 00H, 00H
	ORG $+6
$SG78729 DB	'Unknown type/colorspace/channels combination.', 00H
	ORG $+2
$SG78833 DB	'n', 00H, '1', 00H, ' ', 00H, '>', 00H, '=', 00H, ' ', 00H
	DB	'n', 00H, '0', 00H, 00H, 00H
	ORG $+6
$SG78452 DB	'W', 00H, ':', 00H, '\', 00H, 'c', 00H, 'p', 00H, 'p', 00H
	DB	'\', 00H, 'v', 00H, 'o', 00H, 'i', 00H, 'd', 00H, '\', 00H, 'r'
	DB	00H, 'x', 00H, '\', 00H, 's', 00H, 't', 00H, 'b', 00H, '_', 00H
	DB	'i', 00H, 'm', 00H, 'a', 00H, 'g', 00H, 'e', 00H, '_', 00H, 'r'
	DB	00H, 'e', 00H, 's', 00H, 'i', 00H, 'z', 00H, 'e', 00H, '.', 00H
	DB	'h', 00H, 00H, 00H
$SG81191 DB	'IDAT', 00H
	ORG $+7
$SG78453 DB	'c', 00H, 'o', 00H, 'n', 00H, 't', 00H, 'r', 00H, 'i', 00H
	DB	'b', 00H, 'u', 00H, 't', 00H, 'o', 00H, 'r', 00H, '-', 00H, '>'
	DB	00H, 'n', 00H, '1', 00H, ' ', 00H, '>', 00H, '=', 00H, ' ', 00H
	DB	'c', 00H, 'o', 00H, 'n', 00H, 't', 00H, 'r', 00H, 'i', 00H, 'b'
	DB	00H, 'u', 00H, 't', 00H, 'o', 00H, 'r', 00H, '-', 00H, '>', 00H
	DB	'n', 00H, '0', 00H, 00H, 00H
	ORG $+2
$SG78844 DB	'c', 00H, 'o', 00H, 'e', 00H, 'f', 00H, 'f', 00H, 'i', 00H
	DB	'c', 00H, 'i', 00H, 'e', 00H, 'n', 00H, 't', 00H, ' ', 00H, '!'
	DB	00H, '=', 00H, ' ', 00H, '0', 00H, 00H, 00H
	ORG $+6
$SG78509 DB	'W', 00H, ':', 00H, '\', 00H, 'c', 00H, 'p', 00H, 'p', 00H
	DB	'\', 00H, 'v', 00H, 'o', 00H, 'i', 00H, 'd', 00H, '\', 00H, 'r'
	DB	00H, 'x', 00H, '\', 00H, 's', 00H, 't', 00H, 'b', 00H, '_', 00H
	DB	'i', 00H, 'm', 00H, 'a', 00H, 'g', 00H, 'e', 00H, '_', 00H, 'r'
	DB	00H, 'e', 00H, 's', 00H, 'i', 00H, 'z', 00H, 'e', 00H, '.', 00H
	DB	'h', 00H, 00H, 00H
	ORG $+4
$SG78510 DB	't', 00H, 'o', 00H, 't', 00H, 'a', 00H, 'l', 00H, ' ', 00H
	DB	'>', 00H, ' ', 00H, '0', 00H, '.', 00H, '9', 00H, 'f', 00H, 00H
	DB	00H
	ORG $+6
$SG78847 DB	'c', 00H, 'o', 00H, 'e', 00H, 'f', 00H, 'f', 00H, 'i', 00H
	DB	'c', 00H, 'i', 00H, 'e', 00H, 'n', 00H, 't', 00H, ' ', 00H, '!'
	DB	00H, '=', 00H, ' ', 00H, '0', 00H, 00H, 00H
	ORG $+6
$SG78511 DB	'W', 00H, ':', 00H, '\', 00H, 'c', 00H, 'p', 00H, 'p', 00H
	DB	'\', 00H, 'v', 00H, 'o', 00H, 'i', 00H, 'd', 00H, '\', 00H, 'r'
	DB	00H, 'x', 00H, '\', 00H, 's', 00H, 't', 00H, 'b', 00H, '_', 00H
	DB	'i', 00H, 'm', 00H, 'a', 00H, 'g', 00H, 'e', 00H, '_', 00H, 'r'
	DB	00H, 'e', 00H, 's', 00H, 'i', 00H, 'z', 00H, 'e', 00H, '.', 00H
	DB	'h', 00H, 00H, 00H
	ORG $+4
$SG78512 DB	't', 00H, 'o', 00H, 't', 00H, 'a', 00H, 'l', 00H, ' ', 00H
	DB	'<', 00H, ' ', 00H, '1', 00H, '.', 00H, '1', 00H, 'f', 00H, 00H
	DB	00H
	ORG $+6
$SG78850 DB	'c', 00H, 'o', 00H, 'e', 00H, 'f', 00H, 'f', 00H, 'i', 00H
	DB	'c', 00H, 'i', 00H, 'e', 00H, 'n', 00H, 't', 00H, ' ', 00H, '!'
	DB	00H, '=', 00H, ' ', 00H, '0', 00H, 00H, 00H
	ORG $+6
$SG78730 DB	'W', 00H, ':', 00H, '\', 00H, 'c', 00H, 'p', 00H, 'p', 00H
	DB	'\', 00H, 'v', 00H, 'o', 00H, 'i', 00H, 'd', 00H, '\', 00H, 'r'
	DB	00H, 'x', 00H, '\', 00H, 's', 00H, 't', 00H, 'b', 00H, '_', 00H
	DB	'i', 00H, 'm', 00H, 'a', 00H, 'g', 00H, 'e', 00H, '_', 00H, 'r'
	DB	00H, 'e', 00H, 's', 00H, 'i', 00H, 'z', 00H, 'e', 00H, '.', 00H
	DB	'h', 00H, 00H, 00H
$SG81194 DB	'IEND', 00H
	ORG $+7
$SG78731 DB	'!', 00H, '"', 00H, 'U', 00H, 'n', 00H, 'k', 00H, 'n', 00H
	DB	'o', 00H, 'w', 00H, 'n', 00H, ' ', 00H, 't', 00H, 'y', 00H, 'p'
	DB	00H, 'e', 00H, '/', 00H, 'c', 00H, 'o', 00H, 'l', 00H, 'o', 00H
	DB	'r', 00H, 's', 00H, 'p', 00H, 'a', 00H, 'c', 00H, 'e', 00H, '/'
	DB	00H, 'c', 00H, 'h', 00H, 'a', 00H, 'n', 00H, 'n', 00H, 'e', 00H
	DB	'l', 00H, 's', 00H, ' ', 00H, 'c', 00H, 'o', 00H, 'm', 00H, 'b'
	DB	00H, 'i', 00H, 'n', 00H, 'a', 00H, 't', 00H, 'i', 00H, 'o', 00H
	DB	'n', 00H, '.', 00H, '"', 00H, 00H, 00H
	ORG $+6
$SG78853 DB	'c', 00H, 'o', 00H, 'e', 00H, 'f', 00H, 'f', 00H, 'i', 00H
	DB	'c', 00H, 'i', 00H, 'e', 00H, 'n', 00H, 't', 00H, ' ', 00H, '!'
	DB	00H, '=', 00H, ' ', 00H, '0', 00H, 00H, 00H
	ORG $+6
$SG78757 DB	'W', 00H, ':', 00H, '\', 00H, 'c', 00H, 'p', 00H, 'p', 00H
	DB	'\', 00H, 'v', 00H, 'o', 00H, 'i', 00H, 'd', 00H, '\', 00H, 'r'
	DB	00H, 'x', 00H, '\', 00H, 's', 00H, 't', 00H, 'b', 00H, '_', 00H
	DB	'i', 00H, 'm', 00H, 'a', 00H, 'g', 00H, 'e', 00H, '_', 00H, 'r'
	DB	00H, 'e', 00H, 's', 00H, 'i', 00H, 'z', 00H, 'e', 00H, '.', 00H
	DB	'h', 00H, 00H, 00H
$SG81195 DB	'IEND', 00H
	ORG $+7
$SG78758 DB	'r', 00H, 'i', 00H, 'n', 00H, 'g', 00H, '_', 00H, 'b', 00H
	DB	'u', 00H, 'f', 00H, 'f', 00H, 'e', 00H, 'r', 00H, '_', 00H, 'i'
	DB	00H, 'n', 00H, 'd', 00H, 'e', 00H, 'x', 00H, ' ', 00H, '!', 00H
	DB	'=', 00H, ' ', 00H, 's', 00H, 't', 00H, 'b', 00H, 'i', 00H, 'r'
	DB	00H, '_', 00H, 'i', 00H, 'n', 00H, 'f', 00H, 'o', 00H, '-', 00H
	DB	'>', 00H, 'r', 00H, 'i', 00H, 'n', 00H, 'g', 00H, '_', 00H, 'b'
	DB	00H, 'u', 00H, 'f', 00H, 'f', 00H, 'e', 00H, 'r', 00H, '_', 00H
	DB	'b', 00H, 'e', 00H, 'g', 00H, 'i', 00H, 'n', 00H, '_', 00H, 'i'
	DB	00H, 'n', 00H, 'd', 00H, 'e', 00H, 'x', 00H, 00H, 00H
	ORG $+6
$SG78856 DB	'c', 00H, 'o', 00H, 'e', 00H, 'f', 00H, 'f', 00H, 'i', 00H
	DB	'c', 00H, 'i', 00H, 'e', 00H, 'n', 00H, 't', 00H, ' ', 00H, '!'
	DB	00H, '=', 00H, ' ', 00H, '0', 00H, 00H, 00H
	ORG $+6
$SG78832 DB	'W', 00H, ':', 00H, '\', 00H, 'c', 00H, 'p', 00H, 'p', 00H
	DB	'\', 00H, 'v', 00H, 'o', 00H, 'i', 00H, 'd', 00H, '\', 00H, 'r'
	DB	00H, 'x', 00H, '\', 00H, 's', 00H, 't', 00H, 'b', 00H, '_', 00H
	DB	'i', 00H, 'm', 00H, 'a', 00H, 'g', 00H, 'e', 00H, '_', 00H, 'r'
	DB	00H, 'e', 00H, 's', 00H, 'i', 00H, 'z', 00H, 'e', 00H, '.', 00H
	DB	'h', 00H, 00H, 00H
$SG81196 DB	'IEND', 00H
	ORG $+7
$SG78834 DB	'W', 00H, ':', 00H, '\', 00H, 'c', 00H, 'p', 00H, 'p', 00H
	DB	'\', 00H, 'v', 00H, 'o', 00H, 'i', 00H, 'd', 00H, '\', 00H, 'r'
	DB	00H, 'x', 00H, '\', 00H, 's', 00H, 't', 00H, 'b', 00H, '_', 00H
	DB	'i', 00H, 'm', 00H, 'a', 00H, 'g', 00H, 'e', 00H, '_', 00H, 'r'
	DB	00H, 'e', 00H, 's', 00H, 'i', 00H, 'z', 00H, 'e', 00H, '.', 00H
	DB	'h', 00H, 00H, 00H
$SG81197 DB	'IEND', 00H
	ORG $+7
$SG78835 DB	'n', 00H, '0', 00H, ' ', 00H, '>', 00H, '=', 00H, ' ', 00H
	DB	'-', 00H, 's', 00H, 't', 00H, 'b', 00H, 'i', 00H, 'r', 00H, '_'
	DB	00H, 'i', 00H, 'n', 00H, 'f', 00H, 'o', 00H, '-', 00H, '>', 00H
	DB	'h', 00H, 'o', 00H, 'r', 00H, 'i', 00H, 'z', 00H, 'o', 00H, 'n'
	DB	00H, 't', 00H, 'a', 00H, 'l', 00H, '_', 00H, 'f', 00H, 'i', 00H
	DB	'l', 00H, 't', 00H, 'e', 00H, 'r', 00H, '_', 00H, 'p', 00H, 'i'
	DB	00H, 'x', 00H, 'e', 00H, 'l', 00H, '_', 00H, 'm', 00H, 'a', 00H
	DB	'r', 00H, 'g', 00H, 'i', 00H, 'n', 00H, 00H, 00H
$SG82658 DB	'typ1', 00H
	ORG $+7
$SG78836 DB	'W', 00H, ':', 00H, '\', 00H, 'c', 00H, 'p', 00H, 'p', 00H
	DB	'\', 00H, 'v', 00H, 'o', 00H, 'i', 00H, 'd', 00H, '\', 00H, 'r'
	DB	00H, 'x', 00H, '\', 00H, 's', 00H, 't', 00H, 'b', 00H, '_', 00H
	DB	'i', 00H, 'm', 00H, 'a', 00H, 'g', 00H, 'e', 00H, '_', 00H, 'r'
	DB	00H, 'e', 00H, 's', 00H, 'i', 00H, 'z', 00H, 'e', 00H, '.', 00H
	DB	'h', 00H, 00H, 00H
$SG82659 DB	'typ1', 00H
	ORG $+7
$SG78837 DB	'n', 00H, '1', 00H, ' ', 00H, '>', 00H, '=', 00H, ' ', 00H
	DB	'-', 00H, 's', 00H, 't', 00H, 'b', 00H, 'i', 00H, 'r', 00H, '_'
	DB	00H, 'i', 00H, 'n', 00H, 'f', 00H, 'o', 00H, '-', 00H, '>', 00H
	DB	'h', 00H, 'o', 00H, 'r', 00H, 'i', 00H, 'z', 00H, 'o', 00H, 'n'
	DB	00H, 't', 00H, 'a', 00H, 'l', 00H, '_', 00H, 'f', 00H, 'i', 00H
	DB	'l', 00H, 't', 00H, 'e', 00H, 'r', 00H, '_', 00H, 'p', 00H, 'i'
	DB	00H, 'x', 00H, 'e', 00H, 'l', 00H, '_', 00H, 'm', 00H, 'a', 00H
	DB	'r', 00H, 'g', 00H, 'i', 00H, 'n', 00H, 00H, 00H
$SG82660 DB	'typ1', 00H
	ORG $+7
$SG78838 DB	'W', 00H, ':', 00H, '\', 00H, 'c', 00H, 'p', 00H, 'p', 00H
	DB	'\', 00H, 'v', 00H, 'o', 00H, 'i', 00H, 'd', 00H, '\', 00H, 'r'
	DB	00H, 'x', 00H, '\', 00H, 's', 00H, 't', 00H, 'b', 00H, '_', 00H
	DB	'i', 00H, 'm', 00H, 'a', 00H, 'g', 00H, 'e', 00H, '_', 00H, 'r'
	DB	00H, 'e', 00H, 's', 00H, 'i', 00H, 'z', 00H, 'e', 00H, '.', 00H
	DB	'h', 00H, 00H, 00H
$SG82661 DB	'typ1', 00H
	ORG $+7
$SG78839 DB	'n', 00H, '0', 00H, ' ', 00H, '<', 00H, ' ', 00H, 's', 00H
	DB	't', 00H, 'b', 00H, 'i', 00H, 'r', 00H, '_', 00H, 'i', 00H, 'n'
	DB	00H, 'f', 00H, 'o', 00H, '-', 00H, '>', 00H, 'i', 00H, 'n', 00H
	DB	'p', 00H, 'u', 00H, 't', 00H, '_', 00H, 'w', 00H, ' ', 00H, '+'
	DB	00H, ' ', 00H, 's', 00H, 't', 00H, 'b', 00H, 'i', 00H, 'r', 00H
	DB	'_', 00H, 'i', 00H, 'n', 00H, 'f', 00H, 'o', 00H, '-', 00H, '>'
	DB	00H, 'h', 00H, 'o', 00H, 'r', 00H, 'i', 00H, 'z', 00H, 'o', 00H
	DB	'n', 00H, 't', 00H, 'a', 00H, 'l', 00H, '_', 00H, 'f', 00H, 'i'
	DB	00H, 'l', 00H, 't', 00H, 'e', 00H, 'r', 00H, '_', 00H, 'p', 00H
	DB	'i', 00H, 'x', 00H, 'e', 00H, 'l', 00H, '_', 00H, 'm', 00H, 'a'
	DB	00H, 'r', 00H, 'g', 00H, 'i', 00H, 'n', 00H, 00H, 00H
	ORG $+4
$SG78840 DB	'W', 00H, ':', 00H, '\', 00H, 'c', 00H, 'p', 00H, 'p', 00H
	DB	'\', 00H, 'v', 00H, 'o', 00H, 'i', 00H, 'd', 00H, '\', 00H, 'r'
	DB	00H, 'x', 00H, '\', 00H, 's', 00H, 't', 00H, 'b', 00H, '_', 00H
	DB	'i', 00H, 'm', 00H, 'a', 00H, 'g', 00H, 'e', 00H, '_', 00H, 'r'
	DB	00H, 'e', 00H, 's', 00H, 'i', 00H, 'z', 00H, 'e', 00H, '.', 00H
	DB	'h', 00H, 00H, 00H
$SG82663 DB	'OTTO', 00H
	ORG $+7
$SG78841 DB	'n', 00H, '1', 00H, ' ', 00H, '<', 00H, ' ', 00H, 's', 00H
	DB	't', 00H, 'b', 00H, 'i', 00H, 'r', 00H, '_', 00H, 'i', 00H, 'n'
	DB	00H, 'f', 00H, 'o', 00H, '-', 00H, '>', 00H, 'i', 00H, 'n', 00H
	DB	'p', 00H, 'u', 00H, 't', 00H, '_', 00H, 'w', 00H, ' ', 00H, '+'
	DB	00H, ' ', 00H, 's', 00H, 't', 00H, 'b', 00H, 'i', 00H, 'r', 00H
	DB	'_', 00H, 'i', 00H, 'n', 00H, 'f', 00H, 'o', 00H, '-', 00H, '>'
	DB	00H, 'h', 00H, 'o', 00H, 'r', 00H, 'i', 00H, 'z', 00H, 'o', 00H
	DB	'n', 00H, 't', 00H, 'a', 00H, 'l', 00H, '_', 00H, 'f', 00H, 'i'
	DB	00H, 'l', 00H, 't', 00H, 'e', 00H, 'r', 00H, '_', 00H, 'p', 00H
	DB	'i', 00H, 'x', 00H, 'e', 00H, 'l', 00H, '_', 00H, 'm', 00H, 'a'
	DB	00H, 'r', 00H, 'g', 00H, 'i', 00H, 'n', 00H, 00H, 00H
	ORG $+4
$SG78843 DB	'W', 00H, ':', 00H, '\', 00H, 'c', 00H, 'p', 00H, 'p', 00H
	DB	'\', 00H, 'v', 00H, 'o', 00H, 'i', 00H, 'd', 00H, '\', 00H, 'r'
	DB	00H, 'x', 00H, '\', 00H, 's', 00H, 't', 00H, 'b', 00H, '_', 00H
	DB	'i', 00H, 'm', 00H, 'a', 00H, 'g', 00H, 'e', 00H, '_', 00H, 'r'
	DB	00H, 'e', 00H, 's', 00H, 'i', 00H, 'z', 00H, 'e', 00H, '.', 00H
	DB	'h', 00H, 00H, 00H
$SG82664 DB	'OTTO', 00H
	ORG $+7
$SG78846 DB	'W', 00H, ':', 00H, '\', 00H, 'c', 00H, 'p', 00H, 'p', 00H
	DB	'\', 00H, 'v', 00H, 'o', 00H, 'i', 00H, 'd', 00H, '\', 00H, 'r'
	DB	00H, 'x', 00H, '\', 00H, 's', 00H, 't', 00H, 'b', 00H, '_', 00H
	DB	'i', 00H, 'm', 00H, 'a', 00H, 'g', 00H, 'e', 00H, '_', 00H, 'r'
	DB	00H, 'e', 00H, 's', 00H, 'i', 00H, 'z', 00H, 'e', 00H, '.', 00H
	DB	'h', 00H, 00H, 00H
$SG82665 DB	'OTTO', 00H
	ORG $+7
$SG78849 DB	'W', 00H, ':', 00H, '\', 00H, 'c', 00H, 'p', 00H, 'p', 00H
	DB	'\', 00H, 'v', 00H, 'o', 00H, 'i', 00H, 'd', 00H, '\', 00H, 'r'
	DB	00H, 'x', 00H, '\', 00H, 's', 00H, 't', 00H, 'b', 00H, '_', 00H
	DB	'i', 00H, 'm', 00H, 'a', 00H, 'g', 00H, 'e', 00H, '_', 00H, 'r'
	DB	00H, 'e', 00H, 's', 00H, 'i', 00H, 'z', 00H, 'e', 00H, '.', 00H
	DB	'h', 00H, 00H, 00H
$SG82666 DB	'OTTO', 00H
	ORG $+7
$SG78852 DB	'W', 00H, ':', 00H, '\', 00H, 'c', 00H, 'p', 00H, 'p', 00H
	DB	'\', 00H, 'v', 00H, 'o', 00H, 'i', 00H, 'd', 00H, '\', 00H, 'r'
	DB	00H, 'x', 00H, '\', 00H, 's', 00H, 't', 00H, 'b', 00H, '_', 00H
	DB	'i', 00H, 'm', 00H, 'a', 00H, 'g', 00H, 'e', 00H, '_', 00H, 'r'
	DB	00H, 'e', 00H, 's', 00H, 'i', 00H, 'z', 00H, 'e', 00H, '.', 00H
	DB	'h', 00H, 00H, 00H
$SG82669 DB	'true', 00H
	ORG $+7
$SG78855 DB	'W', 00H, ':', 00H, '\', 00H, 'c', 00H, 'p', 00H, 'p', 00H
	DB	'\', 00H, 'v', 00H, 'o', 00H, 'i', 00H, 'd', 00H, '\', 00H, 'r'
	DB	00H, 'x', 00H, '\', 00H, 's', 00H, 't', 00H, 'b', 00H, '_', 00H
	DB	'i', 00H, 'm', 00H, 'a', 00H, 'g', 00H, 'e', 00H, '_', 00H, 'r'
	DB	00H, 'e', 00H, 's', 00H, 'i', 00H, 'z', 00H, 'e', 00H, '.', 00H
	DB	'h', 00H, 00H, 00H
$SG82670 DB	'true', 00H
	ORG $+7
$SG78951 DB	'W', 00H, ':', 00H, '\', 00H, 'c', 00H, 'p', 00H, 'p', 00H
	DB	'\', 00H, 'v', 00H, 'o', 00H, 'i', 00H, 'd', 00H, '\', 00H, 'r'
	DB	00H, 'x', 00H, '\', 00H, 's', 00H, 't', 00H, 'b', 00H, '_', 00H
	DB	'i', 00H, 'm', 00H, 'a', 00H, 'g', 00H, 'e', 00H, '_', 00H, 'r'
	DB	00H, 'e', 00H, 's', 00H, 'i', 00H, 'z', 00H, 'e', 00H, '.', 00H
	DB	'h', 00H, 00H, 00H
$SG82671 DB	'true', 00H
	ORG $+7
$SG78952 DB	'!', 00H, 's', 00H, 't', 00H, 'b', 00H, 'i', 00H, 'r', 00H
	DB	'_', 00H, '_', 00H, 'u', 00H, 's', 00H, 'e', 00H, '_', 00H, 'w'
	DB	00H, 'i', 00H, 'd', 00H, 't', 00H, 'h', 00H, '_', 00H, 'u', 00H
	DB	'p', 00H, 's', 00H, 'a', 00H, 'm', 00H, 'p', 00H, 'l', 00H, 'i'
	DB	00H, 'n', 00H, 'g', 00H, '(', 00H, 's', 00H, 't', 00H, 'b', 00H
	DB	'i', 00H, 'r', 00H, '_', 00H, 'i', 00H, 'n', 00H, 'f', 00H, 'o'
	DB	00H, ')', 00H, 00H, 00H
	ORG $+6
$SG79155 DB	'Unknown type/colorspace/channels combination.', 00H
	ORG $+2
$SG79478 DB	'i', 00H, 'n', 00H, 'f', 00H, 'o', 00H, '-', 00H, '>', 00H
	DB	'v', 00H, 'e', 00H, 'r', 00H, 't', 00H, 'i', 00H, 'c', 00H, 'a'
	DB	00H, 'l', 00H, '_', 00H, 'f', 00H, 'i', 00H, 'l', 00H, 't', 00H
	DB	'e', 00H, 'r', 00H, ' ', 00H, '!', 00H, '=', 00H, ' ', 00H, '0'
	DB	00H, 00H, 00H
	ORG $+2
$SG79156 DB	'W', 00H, ':', 00H, '\', 00H, 'c', 00H, 'p', 00H, 'p', 00H
	DB	'\', 00H, 'v', 00H, 'o', 00H, 'i', 00H, 'd', 00H, '\', 00H, 'r'
	DB	00H, 'x', 00H, '\', 00H, 's', 00H, 't', 00H, 'b', 00H, '_', 00H
	DB	'i', 00H, 'm', 00H, 'a', 00H, 'g', 00H, 'e', 00H, '_', 00H, 'r'
	DB	00H, 'e', 00H, 's', 00H, 'i', 00H, 'z', 00H, 'e', 00H, '.', 00H
	DB	'h', 00H, 00H, 00H
$SG82672 DB	'true', 00H
	ORG $+7
$SG79157 DB	'!', 00H, '"', 00H, 'U', 00H, 'n', 00H, 'k', 00H, 'n', 00H
	DB	'o', 00H, 'w', 00H, 'n', 00H, ' ', 00H, 't', 00H, 'y', 00H, 'p'
	DB	00H, 'e', 00H, '/', 00H, 'c', 00H, 'o', 00H, 'l', 00H, 'o', 00H
	DB	'r', 00H, 's', 00H, 'p', 00H, 'a', 00H, 'c', 00H, 'e', 00H, '/'
	DB	00H, 'c', 00H, 'h', 00H, 'a', 00H, 'n', 00H, 'n', 00H, 'e', 00H
	DB	'l', 00H, 's', 00H, ' ', 00H, 'c', 00H, 'o', 00H, 'm', 00H, 'b'
	DB	00H, 'i', 00H, 'n', 00H, 'a', 00H, 't', 00H, 'i', 00H, 'o', 00H
	DB	'n', 00H, '.', 00H, '"', 00H, 00H, 00H
	ORG $+6
$SG79561 DB	'i', 00H, 'n', 00H, 'f', 00H, 'o', 00H, '-', 00H, '>', 00H
	DB	'c', 00H, 'h', 00H, 'a', 00H, 'n', 00H, 'n', 00H, 'e', 00H, 'l'
	DB	00H, 's', 00H, ' ', 00H, '>', 00H, '=', 00H, ' ', 00H, '0', 00H
	DB	00H, 00H
$SG79251 DB	'W', 00H, ':', 00H, '\', 00H, 'c', 00H, 'p', 00H, 'p', 00H
	DB	'\', 00H, 'v', 00H, 'o', 00H, 'i', 00H, 'd', 00H, '\', 00H, 'r'
	DB	00H, 'x', 00H, '\', 00H, 's', 00H, 't', 00H, 'b', 00H, '_', 00H
	DB	'i', 00H, 'm', 00H, 'a', 00H, 'g', 00H, 'e', 00H, '_', 00H, 'r'
	DB	00H, 'e', 00H, 's', 00H, 'i', 00H, 'z', 00H, 'e', 00H, '.', 00H
	DB	'h', 00H, 00H, 00H
$SG82698 DB	'ttcf', 00H
	ORG $+7
$SG79252 DB	's', 00H, 't', 00H, 'b', 00H, 'i', 00H, 'r', 00H, '_', 00H
	DB	'_', 00H, 'u', 00H, 's', 00H, 'e', 00H, '_', 00H, 'h', 00H, 'e'
	DB	00H, 'i', 00H, 'g', 00H, 'h', 00H, 't', 00H, '_', 00H, 'u', 00H
	DB	'p', 00H, 's', 00H, 'a', 00H, 'm', 00H, 'p', 00H, 'l', 00H, 'i'
	DB	00H, 'n', 00H, 'g', 00H, '(', 00H, 's', 00H, 't', 00H, 'b', 00H
	DB	'i', 00H, 'r', 00H, '_', 00H, 'i', 00H, 'n', 00H, 'f', 00H, 'o'
	DB	00H, ')', 00H, 00H, 00H
	ORG $+6
$SG79579 DB	't', 00H, 'e', 00H, 'm', 00H, 'p', 00H, 'm', 00H, 'e', 00H
	DB	'm', 00H, 00H, 00H
$SG79644 DB	'stbir__resize_arbitrary', 00H
$SG79316 DB	'W', 00H, ':', 00H, '\', 00H, 'c', 00H, 'p', 00H, 'p', 00H
	DB	'\', 00H, 'v', 00H, 'o', 00H, 'i', 00H, 'd', 00H, '\', 00H, 'r'
	DB	00H, 'x', 00H, '\', 00H, 's', 00H, 't', 00H, 'b', 00H, '_', 00H
	DB	'i', 00H, 'm', 00H, 'a', 00H, 'g', 00H, 'e', 00H, '_', 00H, 'r'
	DB	00H, 'e', 00H, 's', 00H, 'i', 00H, 'z', 00H, 'e', 00H, '.', 00H
	DB	'h', 00H, 00H, 00H
$SG82699 DB	'ttcf', 00H
	ORG $+7
$SG79317 DB	'!', 00H, 's', 00H, 't', 00H, 'b', 00H, 'i', 00H, 'r', 00H
	DB	'_', 00H, '_', 00H, 'u', 00H, 's', 00H, 'e', 00H, '_', 00H, 'h'
	DB	00H, 'e', 00H, 'i', 00H, 'g', 00H, 'h', 00H, 't', 00H, '_', 00H
	DB	'u', 00H, 'p', 00H, 's', 00H, 'a', 00H, 'm', 00H, 'p', 00H, 'l'
	DB	00H, 'i', 00H, 'n', 00H, 'g', 00H, '(', 00H, 's', 00H, 't', 00H
	DB	'b', 00H, 'i', 00H, 'r', 00H, '_', 00H, 'i', 00H, 'n', 00H, 'f'
	DB	00H, 'o', 00H, ')', 00H, 00H, 00H
$SG82700 DB	'ttcf', 00H
	ORG $+7
$SG79344 DB	'W', 00H, ':', 00H, '\', 00H, 'c', 00H, 'p', 00H, 'p', 00H
	DB	'\', 00H, 'v', 00H, 'o', 00H, 'i', 00H, 'd', 00H, '\', 00H, 'r'
	DB	00H, 'x', 00H, '\', 00H, 's', 00H, 't', 00H, 'b', 00H, '_', 00H
	DB	'i', 00H, 'm', 00H, 'a', 00H, 'g', 00H, 'e', 00H, '_', 00H, 'r'
	DB	00H, 'e', 00H, 's', 00H, 'i', 00H, 'z', 00H, 'e', 00H, '.', 00H
	DB	'h', 00H, 00H, 00H
$SG82701 DB	'ttcf', 00H
	ORG $+7
$SG79345 DB	's', 00H, 't', 00H, 'b', 00H, 'i', 00H, 'r', 00H, '_', 00H
	DB	'_', 00H, 'u', 00H, 's', 00H, 'e', 00H, '_', 00H, 'h', 00H, 'e'
	DB	00H, 'i', 00H, 'g', 00H, 'h', 00H, 't', 00H, '_', 00H, 'u', 00H
	DB	'p', 00H, 's', 00H, 'a', 00H, 'm', 00H, 'p', 00H, 'l', 00H, 'i'
	DB	00H, 'n', 00H, 'g', 00H, '(', 00H, 's', 00H, 't', 00H, 'b', 00H
	DB	'i', 00H, 'r', 00H, '_', 00H, 'i', 00H, 'n', 00H, 'f', 00H, 'o'
	DB	00H, ')', 00H, 00H, 00H
	ORG $+6
$SG79645 DB	'W:\cpp\void\rx\stb_image_resize.h', 00H
	ORG $+6
$SG79346 DB	'W', 00H, ':', 00H, '\', 00H, 'c', 00H, 'p', 00H, 'p', 00H
	DB	'\', 00H, 'v', 00H, 'o', 00H, 'i', 00H, 'd', 00H, '\', 00H, 'r'
	DB	00H, 'x', 00H, '\', 00H, 's', 00H, 't', 00H, 'b', 00H, '_', 00H
	DB	'i', 00H, 'm', 00H, 'a', 00H, 'g', 00H, 'e', 00H, '_', 00H, 'r'
	DB	00H, 'e', 00H, 's', 00H, 'i', 00H, 'z', 00H, 'e', 00H, '.', 00H
	DB	'h', 00H, 00H, 00H
$SG82711 DB	'ttcf', 00H
	ORG $+7
$SG79347 DB	'i', 00H, 'n', 00H, '_', 00H, 'l', 00H, 'a', 00H, 's', 00H
	DB	't', 00H, '_', 00H, 's', 00H, 'c', 00H, 'a', 00H, 'n', 00H, 'l'
	DB	00H, 'i', 00H, 'n', 00H, 'e', 00H, ' ', 00H, '-', 00H, ' ', 00H
	DB	'i', 00H, 'n', 00H, '_', 00H, 'f', 00H, 'i', 00H, 'r', 00H, 's'
	DB	00H, 't', 00H, '_', 00H, 's', 00H, 'c', 00H, 'a', 00H, 'n', 00H
	DB	'l', 00H, 'i', 00H, 'n', 00H, 'e', 00H, ' ', 00H, '+', 00H, ' '
	DB	00H, '1', 00H, ' ', 00H, '<', 00H, '=', 00H, ' ', 00H, 's', 00H
	DB	't', 00H, 'b', 00H, 'i', 00H, 'r', 00H, '_', 00H, 'i', 00H, 'n'
	DB	00H, 'f', 00H, 'o', 00H, '-', 00H, '>', 00H, 'r', 00H, 'i', 00H
	DB	'n', 00H, 'g', 00H, '_', 00H, 'b', 00H, 'u', 00H, 'f', 00H, 'f'
	DB	00H, 'e', 00H, 'r', 00H, '_', 00H, 'n', 00H, 'u', 00H, 'm', 00H
	DB	'_', 00H, 'e', 00H, 'n', 00H, 't', 00H, 'r', 00H, 'i', 00H, 'e'
	DB	00H, 's', 00H, 00H, 00H
$SG79402 DB	'W', 00H, ':', 00H, '\', 00H, 'c', 00H, 'p', 00H, 'p', 00H
	DB	'\', 00H, 'v', 00H, 'o', 00H, 'i', 00H, 'd', 00H, '\', 00H, 'r'
	DB	00H, 'x', 00H, '\', 00H, 's', 00H, 't', 00H, 'b', 00H, '_', 00H
	DB	'i', 00H, 'm', 00H, 'a', 00H, 'g', 00H, 'e', 00H, '_', 00H, 'r'
	DB	00H, 'e', 00H, 's', 00H, 'i', 00H, 'z', 00H, 'e', 00H, '.', 00H
	DB	'h', 00H, 00H, 00H
$SG82712 DB	'ttcf', 00H
	ORG $+7
$SG79403 DB	'!', 00H, 's', 00H, 't', 00H, 'b', 00H, 'i', 00H, 'r', 00H
	DB	'_', 00H, '_', 00H, 'u', 00H, 's', 00H, 'e', 00H, '_', 00H, 'h'
	DB	00H, 'e', 00H, 'i', 00H, 'g', 00H, 'h', 00H, 't', 00H, '_', 00H
	DB	'u', 00H, 'p', 00H, 's', 00H, 'a', 00H, 'm', 00H, 'p', 00H, 'l'
	DB	00H, 'i', 00H, 'n', 00H, 'g', 00H, '(', 00H, 's', 00H, 't', 00H
	DB	'b', 00H, 'i', 00H, 'r', 00H, '_', 00H, 'i', 00H, 'n', 00H, 'f'
	DB	00H, 'o', 00H, ')', 00H, 00H, 00H
$SG82713 DB	'ttcf', 00H
	ORG $+7
$SG79404 DB	'W', 00H, ':', 00H, '\', 00H, 'c', 00H, 'p', 00H, 'p', 00H
	DB	'\', 00H, 'v', 00H, 'o', 00H, 'i', 00H, 'd', 00H, '\', 00H, 'r'
	DB	00H, 'x', 00H, '\', 00H, 's', 00H, 't', 00H, 'b', 00H, '_', 00H
	DB	'i', 00H, 'm', 00H, 'a', 00H, 'g', 00H, 'e', 00H, '_', 00H, 'r'
	DB	00H, 'e', 00H, 's', 00H, 'i', 00H, 'z', 00H, 'e', 00H, '.', 00H
	DB	'h', 00H, 00H, 00H
$SG82714 DB	'ttcf', 00H
	ORG $+7
$SG79405 DB	'o', 00H, 'u', 00H, 't', 00H, '_', 00H, 'l', 00H, 'a', 00H
	DB	's', 00H, 't', 00H, '_', 00H, 's', 00H, 'c', 00H, 'a', 00H, 'n'
	DB	00H, 'l', 00H, 'i', 00H, 'n', 00H, 'e', 00H, ' ', 00H, '-', 00H
	DB	' ', 00H, 'o', 00H, 'u', 00H, 't', 00H, '_', 00H, 'f', 00H, 'i'
	DB	00H, 'r', 00H, 's', 00H, 't', 00H, '_', 00H, 's', 00H, 'c', 00H
	DB	'a', 00H, 'n', 00H, 'l', 00H, 'i', 00H, 'n', 00H, 'e', 00H, ' '
	DB	00H, '+', 00H, ' ', 00H, '1', 00H, ' ', 00H, '<', 00H, '=', 00H
	DB	' ', 00H, 's', 00H, 't', 00H, 'b', 00H, 'i', 00H, 'r', 00H, '_'
	DB	00H, 'i', 00H, 'n', 00H, 'f', 00H, 'o', 00H, '-', 00H, '>', 00H
	DB	'r', 00H, 'i', 00H, 'n', 00H, 'g', 00H, '_', 00H, 'b', 00H, 'u'
	DB	00H, 'f', 00H, 'f', 00H, 'e', 00H, 'r', 00H, '_', 00H, 'n', 00H
	DB	'u', 00H, 'm', 00H, '_', 00H, 'e', 00H, 'n', 00H, 't', 00H, 'r'
	DB	00H, 'i', 00H, 'e', 00H, 's', 00H, 00H, 00H
$SG82738 DB	'SVG ', 00H
	ORG $+7
$SG79473 DB	'W', 00H, ':', 00H, '\', 00H, 'c', 00H, 'p', 00H, 'p', 00H
	DB	'\', 00H, 'v', 00H, 'o', 00H, 'i', 00H, 'd', 00H, '\', 00H, 'r'
	DB	00H, 'x', 00H, '\', 00H, 's', 00H, 't', 00H, 'b', 00H, '_', 00H
	DB	'i', 00H, 'm', 00H, 'a', 00H, 'g', 00H, 'e', 00H, '_', 00H, 'r'
	DB	00H, 'e', 00H, 's', 00H, 'i', 00H, 'z', 00H, 'e', 00H, '.', 00H
	DB	'h', 00H, 00H, 00H
	ORG $+4
$SG79474 DB	'i', 00H, 'n', 00H, 'f', 00H, 'o', 00H, '-', 00H, '>', 00H
	DB	'h', 00H, 'o', 00H, 'r', 00H, 'i', 00H, 'z', 00H, 'o', 00H, 'n'
	DB	00H, 't', 00H, 'a', 00H, 'l', 00H, '_', 00H, 'f', 00H, 'i', 00H
	DB	'l', 00H, 't', 00H, 'e', 00H, 'r', 00H, ' ', 00H, '!', 00H, '='
	DB	00H, ' ', 00H, '0', 00H, 00H, 00H
	ORG $+6
$SG79647 DB	'stbir__resize_arbitrary', 00H
$SG79475 DB	'W', 00H, ':', 00H, '\', 00H, 'c', 00H, 'p', 00H, 'p', 00H
	DB	'\', 00H, 'v', 00H, 'o', 00H, 'i', 00H, 'd', 00H, '\', 00H, 'r'
	DB	00H, 'x', 00H, '\', 00H, 's', 00H, 't', 00H, 'b', 00H, '_', 00H
	DB	'i', 00H, 'm', 00H, 'a', 00H, 'g', 00H, 'e', 00H, '_', 00H, 'r'
	DB	00H, 'e', 00H, 's', 00H, 'i', 00H, 'z', 00H, 'e', 00H, '.', 00H
	DB	'h', 00H, 00H, 00H
$SG82772 DB	'cmap', 00H
	ORG $+7
$SG79476 DB	'i', 00H, 'n', 00H, 'f', 00H, 'o', 00H, '-', 00H, '>', 00H
	DB	'h', 00H, 'o', 00H, 'r', 00H, 'i', 00H, 'z', 00H, 'o', 00H, 'n'
	DB	00H, 't', 00H, 'a', 00H, 'l', 00H, '_', 00H, 'f', 00H, 'i', 00H
	DB	'l', 00H, 't', 00H, 'e', 00H, 'r', 00H, ' ', 00H, '<', 00H, ' '
	DB	00H, '(', 00H, 's', 00H, 'i', 00H, 'z', 00H, 'e', 00H, 'o', 00H
	DB	'f', 00H, '(', 00H, '(', 00H, 's', 00H, 't', 00H, 'b', 00H, 'i'
	DB	00H, 'r', 00H, '_', 00H, '_', 00H, 'f', 00H, 'i', 00H, 'l', 00H
	DB	't', 00H, 'e', 00H, 'r', 00H, '_', 00H, 'i', 00H, 'n', 00H, 'f'
	DB	00H, 'o', 00H, '_', 00H, 't', 00H, 'a', 00H, 'b', 00H, 'l', 00H
	DB	'e', 00H, ')', 00H, ')', 00H, '/', 00H, 's', 00H, 'i', 00H, 'z'
	DB	00H, 'e', 00H, 'o', 00H, 'f', 00H, '(', 00H, '(', 00H, 's', 00H
	DB	't', 00H, 'b', 00H, 'i', 00H, 'r', 00H, '_', 00H, '_', 00H, 'f'
	DB	00H, 'i', 00H, 'l', 00H, 't', 00H, 'e', 00H, 'r', 00H, '_', 00H
	DB	'i', 00H, 'n', 00H, 'f', 00H, 'o', 00H, '_', 00H, 't', 00H, 'a'
	DB	00H, 'b', 00H, 'l', 00H, 'e', 00H, ')', 00H, '[', 00H, '0', 00H
	DB	']', 00H, ')', 00H, ')', 00H, 00H, 00H
	ORG $+6
$SG79477 DB	'W', 00H, ':', 00H, '\', 00H, 'c', 00H, 'p', 00H, 'p', 00H
	DB	'\', 00H, 'v', 00H, 'o', 00H, 'i', 00H, 'd', 00H, '\', 00H, 'r'
	DB	00H, 'x', 00H, '\', 00H, 's', 00H, 't', 00H, 'b', 00H, '_', 00H
	DB	'i', 00H, 'm', 00H, 'a', 00H, 'g', 00H, 'e', 00H, '_', 00H, 'r'
	DB	00H, 'e', 00H, 's', 00H, 'i', 00H, 'z', 00H, 'e', 00H, '.', 00H
	DB	'h', 00H, 00H, 00H
$SG82773 DB	'loca', 00H
	ORG $+7
$SG79479 DB	'W', 00H, ':', 00H, '\', 00H, 'c', 00H, 'p', 00H, 'p', 00H
	DB	'\', 00H, 'v', 00H, 'o', 00H, 'i', 00H, 'd', 00H, '\', 00H, 'r'
	DB	00H, 'x', 00H, '\', 00H, 's', 00H, 't', 00H, 'b', 00H, '_', 00H
	DB	'i', 00H, 'm', 00H, 'a', 00H, 'g', 00H, 'e', 00H, '_', 00H, 'r'
	DB	00H, 'e', 00H, 's', 00H, 'i', 00H, 'z', 00H, 'e', 00H, '.', 00H
	DB	'h', 00H, 00H, 00H
$SG82774 DB	'head', 00H
	ORG $+7
$SG79480 DB	'i', 00H, 'n', 00H, 'f', 00H, 'o', 00H, '-', 00H, '>', 00H
	DB	'v', 00H, 'e', 00H, 'r', 00H, 't', 00H, 'i', 00H, 'c', 00H, 'a'
	DB	00H, 'l', 00H, '_', 00H, 'f', 00H, 'i', 00H, 'l', 00H, 't', 00H
	DB	'e', 00H, 'r', 00H, ' ', 00H, '<', 00H, ' ', 00H, '(', 00H, 's'
	DB	00H, 'i', 00H, 'z', 00H, 'e', 00H, 'o', 00H, 'f', 00H, '(', 00H
	DB	'(', 00H, 's', 00H, 't', 00H, 'b', 00H, 'i', 00H, 'r', 00H, '_'
	DB	00H, '_', 00H, 'f', 00H, 'i', 00H, 'l', 00H, 't', 00H, 'e', 00H
	DB	'r', 00H, '_', 00H, 'i', 00H, 'n', 00H, 'f', 00H, 'o', 00H, '_'
	DB	00H, 't', 00H, 'a', 00H, 'b', 00H, 'l', 00H, 'e', 00H, ')', 00H
	DB	')', 00H, '/', 00H, 's', 00H, 'i', 00H, 'z', 00H, 'e', 00H, 'o'
	DB	00H, 'f', 00H, '(', 00H, '(', 00H, 's', 00H, 't', 00H, 'b', 00H
	DB	'i', 00H, 'r', 00H, '_', 00H, '_', 00H, 'f', 00H, 'i', 00H, 'l'
	DB	00H, 't', 00H, 'e', 00H, 'r', 00H, '_', 00H, 'i', 00H, 'n', 00H
	DB	'f', 00H, 'o', 00H, '_', 00H, 't', 00H, 'a', 00H, 'b', 00H, 'l'
	DB	00H, 'e', 00H, ')', 00H, '[', 00H, '0', 00H, ']', 00H, ')', 00H
	DB	')', 00H, 00H, 00H
	ORG $+2
$SG79648 DB	'W:\cpp\void\rx\stb_image_resize.h', 00H
	ORG $+6
$SG79560 DB	'W', 00H, ':', 00H, '\', 00H, 'c', 00H, 'p', 00H, 'p', 00H
	DB	'\', 00H, 'v', 00H, 'o', 00H, 'i', 00H, 'd', 00H, '\', 00H, 'r'
	DB	00H, 'x', 00H, '\', 00H, 's', 00H, 't', 00H, 'b', 00H, '_', 00H
	DB	'i', 00H, 'm', 00H, 'a', 00H, 'g', 00H, 'e', 00H, '_', 00H, 'r'
	DB	00H, 'e', 00H, 's', 00H, 'i', 00H, 'z', 00H, 'e', 00H, '.', 00H
	DB	'h', 00H, 00H, 00H
$SG82775 DB	'glyf', 00H
	ORG $+7
$SG79562 DB	'W', 00H, ':', 00H, '\', 00H, 'c', 00H, 'p', 00H, 'p', 00H
	DB	'\', 00H, 'v', 00H, 'o', 00H, 'i', 00H, 'd', 00H, '\', 00H, 'r'
	DB	00H, 'x', 00H, '\', 00H, 's', 00H, 't', 00H, 'b', 00H, '_', 00H
	DB	'i', 00H, 'm', 00H, 'a', 00H, 'g', 00H, 'e', 00H, '_', 00H, 'r'
	DB	00H, 'e', 00H, 's', 00H, 'i', 00H, 'z', 00H, 'e', 00H, '.', 00H
	DB	'h', 00H, 00H, 00H
	ORG $+4
$SG79563 DB	'i', 00H, 'n', 00H, 'f', 00H, 'o', 00H, '-', 00H, '>', 00H
	DB	'c', 00H, 'h', 00H, 'a', 00H, 'n', 00H, 'n', 00H, 'e', 00H, 'l'
	DB	00H, 's', 00H, ' ', 00H, '<', 00H, '=', 00H, ' ', 00H, '6', 00H
	DB	'4', 00H, 00H, 00H
	ORG $+6
$SG80392 DB	'11 4 22 44 44 22 444444', 00H
$SG79566 DB	'W', 00H, ':', 00H, '\', 00H, 'c', 00H, 'p', 00H, 'p', 00H
	DB	'\', 00H, 'v', 00H, 'o', 00H, 'i', 00H, 'd', 00H, '\', 00H, 'r'
	DB	00H, 'x', 00H, '\', 00H, 's', 00H, 't', 00H, 'b', 00H, '_', 00H
	DB	'i', 00H, 'm', 00H, 'a', 00H, 'g', 00H, 'e', 00H, '_', 00H, 'r'
	DB	00H, 'e', 00H, 's', 00H, 'i', 00H, 'z', 00H, 'e', 00H, '.', 00H
	DB	'h', 00H, 00H, 00H
$SG82776 DB	'hhea', 00H
	ORG $+7
$SG79567 DB	'i', 00H, 'n', 00H, 'f', 00H, 'o', 00H, '-', 00H, '>', 00H
	DB	'h', 00H, 'o', 00H, 'r', 00H, 'i', 00H, 'z', 00H, 'o', 00H, 'n'
	DB	00H, 't', 00H, 'a', 00H, 'l', 00H, '_', 00H, 'f', 00H, 'i', 00H
	DB	'l', 00H, 't', 00H, 'e', 00H, 'r', 00H, ' ', 00H, '<', 00H, ' '
	DB	00H, '(', 00H, 's', 00H, 'i', 00H, 'z', 00H, 'e', 00H, 'o', 00H
	DB	'f', 00H, '(', 00H, '(', 00H, 's', 00H, 't', 00H, 'b', 00H, 'i'
	DB	00H, 'r', 00H, '_', 00H, '_', 00H, 'f', 00H, 'i', 00H, 'l', 00H
	DB	't', 00H, 'e', 00H, 'r', 00H, '_', 00H, 'i', 00H, 'n', 00H, 'f'
	DB	00H, 'o', 00H, '_', 00H, 't', 00H, 'a', 00H, 'b', 00H, 'l', 00H
	DB	'e', 00H, ')', 00H, ')', 00H, '/', 00H, 's', 00H, 'i', 00H, 'z'
	DB	00H, 'e', 00H, 'o', 00H, 'f', 00H, '(', 00H, '(', 00H, 's', 00H
	DB	't', 00H, 'b', 00H, 'i', 00H, 'r', 00H, '_', 00H, '_', 00H, 'f'
	DB	00H, 'i', 00H, 'l', 00H, 't', 00H, 'e', 00H, 'r', 00H, '_', 00H
	DB	'i', 00H, 'n', 00H, 'f', 00H, 'o', 00H, '_', 00H, 't', 00H, 'a'
	DB	00H, 'b', 00H, 'l', 00H, 'e', 00H, ')', 00H, '[', 00H, '0', 00H
	DB	']', 00H, ')', 00H, ')', 00H, 00H, 00H
	ORG $+6
$SG79568 DB	'W', 00H, ':', 00H, '\', 00H, 'c', 00H, 'p', 00H, 'p', 00H
	DB	'\', 00H, 'v', 00H, 'o', 00H, 'i', 00H, 'd', 00H, '\', 00H, 'r'
	DB	00H, 'x', 00H, '\', 00H, 's', 00H, 't', 00H, 'b', 00H, '_', 00H
	DB	'i', 00H, 'm', 00H, 'a', 00H, 'g', 00H, 'e', 00H, '_', 00H, 'r'
	DB	00H, 'e', 00H, 's', 00H, 'i', 00H, 'z', 00H, 'e', 00H, '.', 00H
	DB	'h', 00H, 00H, 00H
$SG82777 DB	'hmtx', 00H
	ORG $+7
$SG79569 DB	'i', 00H, 'n', 00H, 'f', 00H, 'o', 00H, '-', 00H, '>', 00H
	DB	'v', 00H, 'e', 00H, 'r', 00H, 't', 00H, 'i', 00H, 'c', 00H, 'a'
	DB	00H, 'l', 00H, '_', 00H, 'f', 00H, 'i', 00H, 'l', 00H, 't', 00H
	DB	'e', 00H, 'r', 00H, ' ', 00H, '<', 00H, ' ', 00H, '(', 00H, 's'
	DB	00H, 'i', 00H, 'z', 00H, 'e', 00H, 'o', 00H, 'f', 00H, '(', 00H
	DB	'(', 00H, 's', 00H, 't', 00H, 'b', 00H, 'i', 00H, 'r', 00H, '_'
	DB	00H, '_', 00H, 'f', 00H, 'i', 00H, 'l', 00H, 't', 00H, 'e', 00H
	DB	'r', 00H, '_', 00H, 'i', 00H, 'n', 00H, 'f', 00H, 'o', 00H, '_'
	DB	00H, 't', 00H, 'a', 00H, 'b', 00H, 'l', 00H, 'e', 00H, ')', 00H
	DB	')', 00H, '/', 00H, 's', 00H, 'i', 00H, 'z', 00H, 'e', 00H, 'o'
	DB	00H, 'f', 00H, '(', 00H, '(', 00H, 's', 00H, 't', 00H, 'b', 00H
	DB	'i', 00H, 'r', 00H, '_', 00H, '_', 00H, 'f', 00H, 'i', 00H, 'l'
	DB	00H, 't', 00H, 'e', 00H, 'r', 00H, '_', 00H, 'i', 00H, 'n', 00H
	DB	'f', 00H, 'o', 00H, '_', 00H, 't', 00H, 'a', 00H, 'b', 00H, 'l'
	DB	00H, 'e', 00H, ')', 00H, '[', 00H, '0', 00H, ']', 00H, ')', 00H
	DB	')', 00H, 00H, 00H
	ORG $+2
$SG80393 DB	'11 4 22 44 44 22 444444 4444 4 444 444 444 444', 00H
	ORG $+1
$SG80473 DB	'111 221 2222 11', 00H
$SG80546 DB	'l', 00H, 'e', 00H, 'n', 00H, 'g', 00H, 't', 00H, 'h', 00H
	DB	'+', 00H, '1', 00H, '2', 00H, '8', 00H, ' ', 00H, '<', 00H, '='
	DB	00H, ' ', 00H, '2', 00H, '5', 00H, '5', 00H, 00H, 00H
	ORG $+4
$SG79575 DB	'W', 00H, ':', 00H, '\', 00H, 'c', 00H, 'p', 00H, 'p', 00H
	DB	'\', 00H, 'v', 00H, 'o', 00H, 'i', 00H, 'd', 00H, '\', 00H, 'r'
	DB	00H, 'x', 00H, '\', 00H, 's', 00H, 't', 00H, 'b', 00H, '_', 00H
	DB	'i', 00H, 'm', 00H, 'a', 00H, 'g', 00H, 'e', 00H, '_', 00H, 'r'
	DB	00H, 'e', 00H, 's', 00H, 'i', 00H, 'z', 00H, 'e', 00H, '.', 00H
	DB	'h', 00H, 00H, 00H
$SG82778 DB	'kern', 00H
	ORG $+7
$SG79576 DB	'a', 00H, 'l', 00H, 'p', 00H, 'h', 00H, 'a', 00H, '_', 00H
	DB	'c', 00H, 'h', 00H, 'a', 00H, 'n', 00H, 'n', 00H, 'e', 00H, 'l'
	DB	00H, ' ', 00H, '>', 00H, '=', 00H, ' ', 00H, '0', 00H, ' ', 00H
	DB	'&', 00H, '&', 00H, ' ', 00H, 'a', 00H, 'l', 00H, 'p', 00H, 'h'
	DB	00H, 'a', 00H, '_', 00H, 'c', 00H, 'h', 00H, 'a', 00H, 'n', 00H
	DB	'n', 00H, 'e', 00H, 'l', 00H, ' ', 00H, '<', 00H, ' ', 00H, 'i'
	DB	00H, 'n', 00H, 'f', 00H, 'o', 00H, '-', 00H, '>', 00H, 'c', 00H
	DB	'h', 00H, 'a', 00H, 'n', 00H, 'n', 00H, 'e', 00H, 'l', 00H, 's'
	DB	00H, 00H, 00H
	ORG $+6
$SG79578 DB	'W', 00H, ':', 00H, '\', 00H, 'c', 00H, 'p', 00H, 'p', 00H
	DB	'\', 00H, 'v', 00H, 'o', 00H, 'i', 00H, 'd', 00H, '\', 00H, 'r'
	DB	00H, 'x', 00H, '\', 00H, 's', 00H, 't', 00H, 'b', 00H, '_', 00H
	DB	'i', 00H, 'm', 00H, 'a', 00H, 'g', 00H, 'e', 00H, '_', 00H, 'r'
	DB	00H, 'e', 00H, 's', 00H, 'i', 00H, 'z', 00H, 'e', 00H, '.', 00H
	DB	'h', 00H, 00H, 00H
$SG82779 DB	'GPOS', 00H
	ORG $+7
$SG79581 DB	'W', 00H, ':', 00H, '\', 00H, 'c', 00H, 'p', 00H, 'p', 00H
	DB	'\', 00H, 'v', 00H, 'o', 00H, 'i', 00H, 'd', 00H, '\', 00H, 'r'
	DB	00H, 'x', 00H, '\', 00H, 's', 00H, 't', 00H, 'b', 00H, '_', 00H
	DB	'i', 00H, 'm', 00H, 'a', 00H, 'g', 00H, 'e', 00H, '_', 00H, 'r'
	DB	00H, 'e', 00H, 's', 00H, 'i', 00H, 'z', 00H, 'e', 00H, '.', 00H
	DB	'h', 00H, 00H, 00H
$SG82785 DB	'CFF ', 00H
	ORG $+7
$SG79582 DB	't', 00H, 'e', 00H, 'm', 00H, 'p', 00H, 'm', 00H, 'e', 00H
	DB	'm', 00H, '_', 00H, 's', 00H, 'i', 00H, 'z', 00H, 'e', 00H, '_'
	DB	00H, 'i', 00H, 'n', 00H, '_', 00H, 'b', 00H, 'y', 00H, 't', 00H
	DB	'e', 00H, 's', 00H, ' ', 00H, '>', 00H, '=', 00H, ' ', 00H, 'm'
	DB	00H, 'e', 00H, 'm', 00H, 'o', 00H, 'r', 00H, 'y', 00H, '_', 00H
	DB	'r', 00H, 'e', 00H, 'q', 00H, 'u', 00H, 'i', 00H, 'r', 00H, 'e'
	DB	00H, 'd', 00H, 00H, 00H
	ORG $+6
$SG80474 DB	'111 221 2222 11', 00H
$SG80644 DB	'stbi_write_hdr_core', 00H
	ORG $+4
$SG79586 DB	'W', 00H, ':', 00H, '\', 00H, 'c', 00H, 'p', 00H, 'p', 00H
	DB	'\', 00H, 'v', 00H, 'o', 00H, 'i', 00H, 'd', 00H, '\', 00H, 'r'
	DB	00H, 'x', 00H, '\', 00H, 's', 00H, 't', 00H, 'b', 00H, '_', 00H
	DB	'i', 00H, 'm', 00H, 'a', 00H, 'g', 00H, 'e', 00H, '_', 00H, 'r'
	DB	00H, 'e', 00H, 's', 00H, 'i', 00H, 'z', 00H, 'e', 00H, '.', 00H
	DB	'h', 00H, 00H, 00H
$SG82791 DB	'maxp', 00H
	ORG $+7
$SG79587 DB	'(', 00H, 's', 00H, 'i', 00H, 'z', 00H, 'e', 00H, '_', 00H
	DB	't', 00H, ')', 00H, '(', 00H, 'u', 00H, 'n', 00H, 's', 00H, 'i'
	DB	00H, 'g', 00H, 'n', 00H, 'e', 00H, 'd', 00H, ' ', 00H, 'c', 00H
	DB	'h', 00H, 'a', 00H, 'r', 00H, '*', 00H, ')', 00H, '(', 00H, '('
	DB	00H, '(', 00H, 'u', 00H, 'n', 00H, 's', 00H, 'i', 00H, 'g', 00H
	DB	'n', 00H, 'e', 00H, 'd', 00H, ' ', 00H, 'c', 00H, 'h', 00H, 'a'
	DB	00H, 'r', 00H, '*', 00H, ')', 00H, 'i', 00H, 'n', 00H, 'f', 00H
	DB	'o', 00H, '-', 00H, '>', 00H, 'e', 00H, 'n', 00H, 'c', 00H, 'o'
	DB	00H, 'd', 00H, 'e', 00H, '_', 00H, 'b', 00H, 'u', 00H, 'f', 00H
	DB	'f', 00H, 'e', 00H, 'r', 00H, ')', 00H, ' ', 00H, '+', 00H, ' '
	DB	00H, 'i', 00H, 'n', 00H, 'f', 00H, 'o', 00H, '-', 00H, '>', 00H
	DB	'e', 00H, 'n', 00H, 'c', 00H, 'o', 00H, 'd', 00H, 'e', 00H, '_'
	DB	00H, 'b', 00H, 'u', 00H, 'f', 00H, 'f', 00H, 'e', 00H, 'r', 00H
	DB	'_', 00H, 's', 00H, 'i', 00H, 'z', 00H, 'e', 00H, ')', 00H, ' '
	DB	00H, '=', 00H, '=', 00H, ' ', 00H, '(', 00H, 's', 00H, 'i', 00H
	DB	'z', 00H, 'e', 00H, '_', 00H, 't', 00H, ')', 00H, 't', 00H, 'e'
	DB	00H, 'm', 00H, 'p', 00H, 'm', 00H, 'e', 00H, 'm', 00H, ' ', 00H
	DB	'+', 00H, ' ', 00H, 't', 00H, 'e', 00H, 'm', 00H, 'p', 00H, 'm'
	DB	00H, 'e', 00H, 'm', 00H, '_', 00H, 's', 00H, 'i', 00H, 'z', 00H
	DB	'e', 00H, '_', 00H, 'i', 00H, 'n', 00H, '_', 00H, 'b', 00H, 'y'
	DB	00H, 't', 00H, 'e', 00H, 's', 00H, 00H, 00H
	ORG $+4
$SG79588 DB	'W', 00H, ':', 00H, '\', 00H, 'c', 00H, 'p', 00H, 'p', 00H
	DB	'\', 00H, 'v', 00H, 'o', 00H, 'i', 00H, 'd', 00H, '\', 00H, 'r'
	DB	00H, 'x', 00H, '\', 00H, 's', 00H, 't', 00H, 'b', 00H, '_', 00H
	DB	'i', 00H, 'm', 00H, 'a', 00H, 'g', 00H, 'e', 00H, '_', 00H, 'r'
	DB	00H, 'e', 00H, 's', 00H, 'i', 00H, 'z', 00H, 'e', 00H, '.', 00H
	DB	'h', 00H, 00H, 00H
$SG83755 DB	'OS/2', 00H
	ORG $+7
$SG79589 DB	'(', 00H, 's', 00H, 'i', 00H, 'z', 00H, 'e', 00H, '_', 00H
	DB	't', 00H, ')', 00H, '(', 00H, 'u', 00H, 'n', 00H, 's', 00H, 'i'
	DB	00H, 'g', 00H, 'n', 00H, 'e', 00H, 'd', 00H, ' ', 00H, 'c', 00H
	DB	'h', 00H, 'a', 00H, 'r', 00H, '*', 00H, ')', 00H, '(', 00H, '('
	DB	00H, '(', 00H, 'u', 00H, 'n', 00H, 's', 00H, 'i', 00H, 'g', 00H
	DB	'n', 00H, 'e', 00H, 'd', 00H, ' ', 00H, 'c', 00H, 'h', 00H, 'a'
	DB	00H, 'r', 00H, '*', 00H, ')', 00H, 'i', 00H, 'n', 00H, 'f', 00H
	DB	'o', 00H, '-', 00H, '>', 00H, 'r', 00H, 'i', 00H, 'n', 00H, 'g'
	DB	00H, '_', 00H, 'b', 00H, 'u', 00H, 'f', 00H, 'f', 00H, 'e', 00H
	DB	'r', 00H, ')', 00H, ' ', 00H, '+', 00H, ' ', 00H, 'i', 00H, 'n'
	DB	00H, 'f', 00H, 'o', 00H, '-', 00H, '>', 00H, 'r', 00H, 'i', 00H
	DB	'n', 00H, 'g', 00H, '_', 00H, 'b', 00H, 'u', 00H, 'f', 00H, 'f'
	DB	00H, 'e', 00H, 'r', 00H, '_', 00H, 's', 00H, 'i', 00H, 'z', 00H
	DB	'e', 00H, ')', 00H, ' ', 00H, '=', 00H, '=', 00H, ' ', 00H, '('
	DB	00H, 's', 00H, 'i', 00H, 'z', 00H, 'e', 00H, '_', 00H, 't', 00H
	DB	')', 00H, 't', 00H, 'e', 00H, 'm', 00H, 'p', 00H, 'm', 00H, 'e'
	DB	00H, 'm', 00H, ' ', 00H, '+', 00H, ' ', 00H, 't', 00H, 'e', 00H
	DB	'm', 00H, 'p', 00H, 'm', 00H, 'e', 00H, 'm', 00H, '_', 00H, 's'
	DB	00H, 'i', 00H, 'z', 00H, 'e', 00H, '_', 00H, 'i', 00H, 'n', 00H
	DB	'_', 00H, 'b', 00H, 'y', 00H, 't', 00H, 'e', 00H, 's', 00H, 00H
	DB	00H
$SG85818 DB	'name', 00H
	ORG $+7
$SG80231 DB	'W', 00H, ':', 00H, '\', 00H, 'c', 00H, 'p', 00H, 'p', 00H
	DB	'\', 00H, 'v', 00H, 'o', 00H, 'i', 00H, 'd', 00H, '\', 00H, 'r'
	DB	00H, 'x', 00H, '\', 00H, 's', 00H, 't', 00H, 'b', 00H, '_', 00H
	DB	'i', 00H, 'm', 00H, 'a', 00H, 'g', 00H, 'e', 00H, '_', 00H, 'w'
	DB	00H, 'r', 00H, 'i', 00H, 't', 00H, 'e', 00H, '.', 00H, 'h', 00H
	DB	00H, 00H
	ORG $+6
$SG80560 DB	'l', 00H, 'e', 00H, 'n', 00H, 'g', 00H, 't', 00H, 'h', 00H
	DB	' ', 00H, '<', 00H, '=', 00H, ' ', 00H, '1', 00H, '2', 00H, '8'
	DB	00H, 00H, 00H
$SG85881 DB	'head', 00H
	ORG $+7
$SG80545 DB	'W', 00H, ':', 00H, '\', 00H, 'c', 00H, 'p', 00H, 'p', 00H
	DB	'\', 00H, 'v', 00H, 'o', 00H, 'i', 00H, 'd', 00H, '\', 00H, 'r'
	DB	00H, 'x', 00H, '\', 00H, 's', 00H, 't', 00H, 'b', 00H, '_', 00H
	DB	'i', 00H, 'm', 00H, 'a', 00H, 'g', 00H, 'e', 00H, '_', 00H, 'w'
	DB	00H, 'r', 00H, 'i', 00H, 't', 00H, 'e', 00H, '.', 00H, 'h', 00H
	DB	00H, 00H
	ORG $+6
$SG80645 DB	'W:\cpp\void\rx\stb_image_write.h', 00H
	ORG $+7
$SG80559 DB	'W', 00H, ':', 00H, '\', 00H, 'c', 00H, 'p', 00H, 'p', 00H
	DB	'\', 00H, 'v', 00H, 'o', 00H, 'i', 00H, 'd', 00H, '\', 00H, 'r'
	DB	00H, 'x', 00H, '\', 00H, 's', 00H, 't', 00H, 'b', 00H, '_', 00H
	DB	'i', 00H, 'm', 00H, 'a', 00H, 'g', 00H, 'e', 00H, '_', 00H, 'w'
	DB	00H, 'r', 00H, 'i', 00H, 't', 00H, 'e', 00H, '.', 00H, 'h', 00H
	DB	00H, 00H
	ORG $+6
$SG80647 DB	'EXPOSURE=          1.0000000000000', 0aH, 0aH, '-Y %d +X'
	DB	' %d', 0aH, 00H
	ORG $+7
$SG80646 DB	'#?RADIANCE', 0aH, '# Written by stb_image_write.h', 0aH, 'F'
	DB	'ORMAT=32-bit_rle_rgbe', 0aH, 00H
	ORG $+6
$SG80648 DB	'stbi_write_hdr_core', 00H
	ORG $+4
$SG80649 DB	'W:\cpp\void\rx\stb_image_write.h', 00H
	ORG $+7
$SG80703 DB	'stbiw__sbgrowf', 00H
	ORG $+1
$SG80704 DB	'W:\cpp\void\rx\stb_image_write.h', 00H
	ORG $+7
$SG80705 DB	'W', 00H, ':', 00H, '\', 00H, 'c', 00H, 'p', 00H, 'p', 00H
	DB	'\', 00H, 'v', 00H, 'o', 00H, 'i', 00H, 'd', 00H, '\', 00H, 'r'
	DB	00H, 'x', 00H, '\', 00H, 's', 00H, 't', 00H, 'b', 00H, '_', 00H
	DB	'i', 00H, 'm', 00H, 'a', 00H, 'g', 00H, 'e', 00H, '_', 00H, 'w'
	DB	00H, 'r', 00H, 'i', 00H, 't', 00H, 'e', 00H, '.', 00H, 'h', 00H
	DB	00H, 00H
	ORG $+6
?lengthc@?1??stbi_zlib_compress@@9@9 DW 03H		; `stbi_zlib_compress'::`2'::lengthc
	DW	04H
	DW	05H
	DW	06H
	DW	07H
	DW	08H
	DW	09H
	DW	0aH
	DW	0bH
	DW	0dH
	DW	0fH
	DW	011H
	DW	013H
	DW	017H
	DW	01bH
	DW	01fH
	DW	023H
	DW	02bH
	DW	033H
	DW	03bH
	DW	043H
	DW	053H
	DW	063H
	DW	073H
	DW	083H
	DW	0a3H
	DW	0c3H
	DW	0e3H
	DW	0102H
	DW	0103H
	ORG $+4
?lengtheb@?1??stbi_zlib_compress@@9@9 DB 00H		; `stbi_zlib_compress'::`2'::lengtheb
	DB	00H
	DB	00H
	DB	00H
	DB	00H
	DB	00H
	DB	00H
	DB	00H
	DB	01H
	DB	01H
	DB	01H
	DB	01H
	DB	02H
	DB	02H
	DB	02H
	DB	02H
	DB	03H
	DB	03H
	DB	03H
	DB	03H
	DB	04H
	DB	04H
	DB	04H
	DB	04H
	DB	05H
	DB	05H
	DB	05H
	DB	05H
	DB	00H
	ORG $+3
?distc@?1??stbi_zlib_compress@@9@9 DW 01H		; `stbi_zlib_compress'::`2'::distc
	DW	02H
	DW	03H
	DW	04H
	DW	05H
	DW	07H
	DW	09H
	DW	0dH
	DW	011H
	DW	019H
	DW	021H
	DW	031H
	DW	041H
	DW	061H
	DW	081H
	DW	0c1H
	DW	0101H
	DW	0181H
	DW	0201H
	DW	0301H
	DW	0401H
	DW	0601H
	DW	0801H
	DW	0c01H
	DW	01001H
	DW	01801H
	DW	02001H
	DW	03001H
	DW	04001H
	DW	06001H
	DW	08000H
	ORG $+2
?disteb@?1??stbi_zlib_compress@@9@9 DB 00H		; `stbi_zlib_compress'::`2'::disteb
	DB	00H
	DB	00H
	DB	00H
	DB	01H
	DB	01H
	DB	02H
	DB	02H
	DB	03H
	DB	03H
	DB	04H
	DB	04H
	DB	05H
	DB	05H
	DB	06H
	DB	06H
	DB	07H
	DB	07H
	DB	08H
	DB	08H
	DB	09H
	DB	09H
	DB	0aH
	DB	0aH
	DB	0bH
	DB	0bH
	DB	0cH
	DB	0cH
	DB	0dH
	DB	0dH
	ORG $+2
$SG80952 DB	'stbi_zlib_compress', 00H
	ORG $+5
$SG80953 DB	'W:\cpp\void\rx\stb_image_write.h', 00H
	ORG $+7
$SG80965 DB	'd', 00H, ' ', 00H, '<', 00H, '=', 00H, ' ', 00H, '3', 00H
	DB	'2', 00H, '7', 00H, '6', 00H, '7', 00H, ' ', 00H, '&', 00H, '&'
	DB	00H, ' ', 00H, 'b', 00H, 'e', 00H, 's', 00H, 't', 00H, ' ', 00H
	DB	'<', 00H, '=', 00H, ' ', 00H, '2', 00H, '5', 00H, '8', 00H, 00H
	DB	00H
	ORG $+4
$SG80964 DB	'W', 00H, ':', 00H, '\', 00H, 'c', 00H, 'p', 00H, 'p', 00H
	DB	'\', 00H, 'v', 00H, 'o', 00H, 'i', 00H, 'd', 00H, '\', 00H, 'r'
	DB	00H, 'x', 00H, '\', 00H, 's', 00H, 't', 00H, 'b', 00H, '_', 00H
	DB	'i', 00H, 'm', 00H, 'a', 00H, 'g', 00H, 'e', 00H, '_', 00H, 'w'
	DB	00H, 'r', 00H, 'i', 00H, 't', 00H, 'e', 00H, '.', 00H, 'h', 00H
	DB	00H, 00H
	ORG $+6
$SG80968 DB	'stbi_zlib_compress', 00H
	ORG $+5
$SG80969 DB	'W:\cpp\void\rx\stb_image_write.h', 00H
	ORG $+7
$SG80970 DB	'stbi_zlib_compress', 00H
	ORG $+5
$SG80971 DB	'W:\cpp\void\rx\stb_image_write.h', 00H
	ORG $+7
?mapping@?1??stbiw__encode_png_line@@9@9 DD 00H		; `stbiw__encode_png_line'::`2'::mapping
	DD	01H
	DD	02H
	DD	03H
	DD	04H
	ORG $+4
?crc_table@?1??stbiw__crc32@@9@9 DD 00H			; `stbiw__crc32'::`2'::crc_table
	DD	077073096H
	DD	0ee0e612cH
	DD	0990951baH
	DD	076dc419H
	DD	0706af48fH
	DD	0e963a535H
	DD	09e6495a3H
	DD	0edb8832H
	DD	079dcb8a4H
	DD	0e0d5e91eH
	DD	097d2d988H
	DD	09b64c2bH
	DD	07eb17cbdH
	DD	0e7b82d07H
	DD	090bf1d91H
	DD	01db71064H
	DD	06ab020f2H
	DD	0f3b97148H
	DD	084be41deH
	DD	01adad47dH
	DD	06ddde4ebH
	DD	0f4d4b551H
	DD	083d385c7H
	DD	0136c9856H
	DD	0646ba8c0H
	DD	0fd62f97aH
	DD	08a65c9ecH
	DD	014015c4fH
	DD	063066cd9H
	DD	0fa0f3d63H
	DD	08d080df5H
	DD	03b6e20c8H
	DD	04c69105eH
	DD	0d56041e4H
	DD	0a2677172H
	DD	03c03e4d1H
	DD	04b04d447H
	DD	0d20d85fdH
	DD	0a50ab56bH
	DD	035b5a8faH
	DD	042b2986cH
	DD	0dbbbc9d6H
	DD	0acbcf940H
	DD	032d86ce3H
	DD	045df5c75H
	DD	0dcd60dcfH
	DD	0abd13d59H
	DD	026d930acH
	DD	051de003aH
	DD	0c8d75180H
	DD	0bfd06116H
	DD	021b4f4b5H
	DD	056b3c423H
	DD	0cfba9599H
	DD	0b8bda50fH
	DD	02802b89eH
	DD	05f058808H
	DD	0c60cd9b2H
	DD	0b10be924H
	DD	02f6f7c87H
	DD	058684c11H
	DD	0c1611dabH
	DD	0b6662d3dH
	DD	076dc4190H
	DD	01db7106H
	DD	098d220bcH
	DD	0efd5102aH
	DD	071b18589H
	DD	06b6b51fH
	DD	09fbfe4a5H
	DD	0e8b8d433H
	DD	07807c9a2H
	DD	0f00f934H
	DD	09609a88eH
	DD	0e10e9818H
	DD	07f6a0dbbH
	DD	086d3d2dH
	DD	091646c97H
	DD	0e6635c01H
	DD	06b6b51f4H
	DD	01c6c6162H
	DD	0856530d8H
	DD	0f262004eH
	DD	06c0695edH
	DD	01b01a57bH
	DD	08208f4c1H
	DD	0f50fc457H
	DD	065b0d9c6H
	DD	012b7e950H
	DD	08bbeb8eaH
	DD	0fcb9887cH
	DD	062dd1ddfH
	DD	015da2d49H
	DD	08cd37cf3H
	DD	0fbd44c65H
	DD	04db26158H
	DD	03ab551ceH
	DD	0a3bc0074H
	DD	0d4bb30e2H
	DD	04adfa541H
	DD	03dd895d7H
	DD	0a4d1c46dH
	DD	0d3d6f4fbH
	DD	04369e96aH
	DD	0346ed9fcH
	DD	0ad678846H
	DD	0da60b8d0H
	DD	044042d73H
	DD	033031de5H
	DD	0aa0a4c5fH
	DD	0dd0d7cc9H
	DD	05005713cH
	DD	0270241aaH
	DD	0be0b1010H
	DD	0c90c2086H
	DD	05768b525H
	DD	0206f85b3H
	DD	0b966d409H
	DD	0ce61e49fH
	DD	05edef90eH
	DD	029d9c998H
	DD	0b0d09822H
	DD	0c7d7a8b4H
	DD	059b33d17H
	DD	02eb40d81H
	DD	0b7bd5c3bH
	DD	0c0ba6cadH
	DD	0edb88320H
	DD	09abfb3b6H
	DD	03b6e20cH
	DD	074b1d29aH
	DD	0ead54739H
	DD	09dd277afH
	DD	04db2615H
	DD	073dc1683H
	DD	0e3630b12H
	DD	094643b84H
	DD	0d6d6a3eH
	DD	07a6a5aa8H
	DD	0e40ecf0bH
	DD	09309ff9dH
	DD	0a00ae27H
	DD	07d079eb1H
	DD	0f00f9344H
	DD	08708a3d2H
	DD	01e01f268H
	DD	06906c2feH
	DD	0f762575dH
	DD	0806567cbH
	DD	0196c3671H
	DD	06e6b06e7H
	DD	0fed41b76H
	DD	089d32be0H
	DD	010da7a5aH
	DD	067dd4accH
	DD	0f9b9df6fH
	DD	08ebeeff9H
	DD	017b7be43H
	DD	060b08ed5H
	DD	0d6d6a3e8H
	DD	0a1d1937eH
	DD	038d8c2c4H
	DD	04fdff252H
	DD	0d1bb67f1H
	DD	0a6bc5767H
	DD	03fb506ddH
	DD	048b2364bH
	DD	0d80d2bdaH
	DD	0af0a1b4cH
	DD	036034af6H
	DD	041047a60H
	DD	0df60efc3H
	DD	0a867df55H
	DD	0316e8eefH
	DD	04669be79H
	DD	0cb61b38cH
	DD	0bc66831aH
	DD	0256fd2a0H
	DD	05268e236H
	DD	0cc0c7795H
	DD	0bb0b4703H
	DD	0220216b9H
	DD	05505262fH
	DD	0c5ba3bbeH
	DD	0b2bd0b28H
	DD	02bb45a92H
	DD	05cb36a04H
	DD	0c2d7ffa7H
	DD	0b5d0cf31H
	DD	02cd99e8bH
	DD	05bdeae1dH
	DD	09b64c2b0H
	DD	0ec63f226H
	DD	0756aa39cH
	DD	026d930aH
	DD	09c0906a9H
	DD	0eb0e363fH
	DD	072076785H
	DD	05005713H
	DD	095bf4a82H
	DD	0e2b87a14H
	DD	07bb12baeH
	DD	0cb61b38H
	DD	092d28e9bH
	DD	0e5d5be0dH
	DD	07cdcefb7H
	DD	0bdbdf21H
	DD	086d3d2d4H
	DD	0f1d4e242H
	DD	068ddb3f8H
	DD	01fda836eH
	DD	081be16cdH
	DD	0f6b9265bH
	DD	06fb077e1H
	DD	018b74777H
	DD	088085ae6H
	DD	0ff0f6a70H
	DD	066063bcaH
	DD	011010b5cH
	DD	08f659effH
	DD	0f862ae69H
	DD	0616bffd3H
	DD	0166ccf45H
	DD	0a00ae278H
	DD	0d70dd2eeH
	DD	04e048354H
	DD	03903b3c2H
	DD	0a7672661H
	DD	0d06016f7H
	DD	04969474dH
	DD	03e6e77dbH
	DD	0aed16a4aH
	DD	0d9d65adcH
	DD	040df0b66H
	DD	037d83bf0H
	DD	0a9bcae53H
	DD	0debb9ec5H
	DD	047b2cf7fH
	DD	030b5ffe9H
	DD	0bdbdf21cH
	DD	0cabac28aH
	DD	053b39330H
	DD	024b4a3a6H
	DD	0bad03605H
	DD	0cdd70693H
	DD	054de5729H
	DD	023d967bfH
	DD	0b3667a2eH
	DD	0c4614ab8H
	DD	05d681b02H
	DD	02a6f2b94H
	DD	0b40bbe37H
	DD	0c30c8ea1H
	DD	05a05df1bH
	DD	02d02ef8dH
?firstmap@?1??stbiw__encode_png_line@@9@9 DD 00H	; `stbiw__encode_png_line'::`2'::firstmap
	DD	01H
	DD	00H
	DD	05H
	DD	06H
	ORG $+4
$SG81164 DB	'stbi_write_png_to_mem', 00H
	ORG $+2
$SG81165 DB	'W:\cpp\void\rx\stb_image_write.h', 00H
	ORG $+7
$SG81167 DB	'stbi_write_png_to_mem', 00H
	ORG $+2
$SG81168 DB	'W:\cpp\void\rx\stb_image_write.h', 00H
	ORG $+7
$SG81170 DB	'stbi_write_png_to_mem', 00H
	ORG $+2
$SG81171 DB	'W:\cpp\void\rx\stb_image_write.h', 00H
	ORG $+7
$SG81176 DB	'stbi_write_png_to_mem', 00H
	ORG $+2
$SG81177 DB	'W:\cpp\void\rx\stb_image_write.h', 00H
	ORG $+7
$SG81178 DB	'stbi_write_png_to_mem', 00H
	ORG $+2
$SG81179 DB	'W:\cpp\void\rx\stb_image_write.h', 00H
	ORG $+7
$SG81181 DB	'stbi_write_png_to_mem', 00H
	ORG $+2
$SG81182 DB	'W:\cpp\void\rx\stb_image_write.h', 00H
	ORG $+7
$SG81192 DB	'stbi_write_png_to_mem', 00H
	ORG $+2
$SG81193 DB	'W:\cpp\void\rx\stb_image_write.h', 00H
	ORG $+7
$SG81199 DB	'o', 00H, ' ', 00H, '=', 00H, '=', 00H, ' ', 00H, 'o', 00H
	DB	'u', 00H, 't', 00H, ' ', 00H, '+', 00H, ' ', 00H, '*', 00H, 'o'
	DB	00H, 'u', 00H, 't', 00H, '_', 00H, 'l', 00H, 'e', 00H, 'n', 00H
	DB	00H, 00H
$SG81198 DB	'W', 00H, ':', 00H, '\', 00H, 'c', 00H, 'p', 00H, 'p', 00H
	DB	'\', 00H, 'v', 00H, 'o', 00H, 'i', 00H, 'd', 00H, '\', 00H, 'r'
	DB	00H, 'x', 00H, '\', 00H, 's', 00H, 't', 00H, 'b', 00H, '_', 00H
	DB	'i', 00H, 'm', 00H, 'a', 00H, 'g', 00H, 'e', 00H, '_', 00H, 'w'
	DB	00H, 'r', 00H, 'i', 00H, 't', 00H, 'e', 00H, '.', 00H, 'h', 00H
	DB	00H, 00H
	ORG $+6
$SG81221 DB	'stbi_write_png', 00H
	ORG $+1
$SG81222 DB	'W:\cpp\void\rx\stb_image_write.h', 00H
	ORG $+7
$SG81223 DB	'stbi_write_png', 00H
	ORG $+1
$SG81224 DB	'W:\cpp\void\rx\stb_image_write.h', 00H
	ORG $+7
$SG81245 DB	'stbi_write_png_to_func', 00H
	ORG $+1
$SG81246 DB	'W:\cpp\void\rx\stb_image_write.h', 00H
	ORG $+7
$SG82490 DB	'W', 00H, ':', 00H, '\', 00H, 'c', 00H, 'p', 00H, 'p', 00H
	DB	'\', 00H, 'v', 00H, 'o', 00H, 'i', 00H, 'd', 00H, '\', 00H, 'r'
	DB	00H, 'x', 00H, '\', 00H, 's', 00H, 't', 00H, 'b', 00H, '_', 00H
	DB	't', 00H, 'r', 00H, 'u', 00H, 'e', 00H, 't', 00H, 'y', 00H, 'p'
	DB	00H, 'e', 00H, '.', 00H, 'h', 00H, 00H, 00H
	ORG $+4
$SG82491 DB	'!', 00H, '(', 00H, 'o', 00H, ' ', 00H, '>', 00H, ' ', 00H
	DB	'b', 00H, '-', 00H, '>', 00H, 's', 00H, 'i', 00H, 'z', 00H, 'e'
	DB	00H, ' ', 00H, '|', 00H, '|', 00H, ' ', 00H, 'o', 00H, ' ', 00H
	DB	'<', 00H, ' ', 00H, '0', 00H, ')', 00H, 00H, 00H
$SG82511 DB	'W', 00H, ':', 00H, '\', 00H, 'c', 00H, 'p', 00H, 'p', 00H
	DB	'\', 00H, 'v', 00H, 'o', 00H, 'i', 00H, 'd', 00H, '\', 00H, 'r'
	DB	00H, 'x', 00H, '\', 00H, 's', 00H, 't', 00H, 'b', 00H, '_', 00H
	DB	't', 00H, 'r', 00H, 'u', 00H, 'e', 00H, 't', 00H, 'y', 00H, 'p'
	DB	00H, 'e', 00H, '.', 00H, 'h', 00H, 00H, 00H
	ORG $+4
$SG82512 DB	'n', 00H, ' ', 00H, '>', 00H, '=', 00H, ' ', 00H, '1', 00H
	DB	' ', 00H, '&', 00H, '&', 00H, ' ', 00H, 'n', 00H, ' ', 00H, '<'
	DB	00H, '=', 00H, ' ', 00H, '4', 00H, 00H, 00H
	ORG $+6
$SG82524 DB	'W', 00H, ':', 00H, '\', 00H, 'c', 00H, 'p', 00H, 'p', 00H
	DB	'\', 00H, 'v', 00H, 'o', 00H, 'i', 00H, 'd', 00H, '\', 00H, 'r'
	DB	00H, 'x', 00H, '\', 00H, 's', 00H, 't', 00H, 'b', 00H, '_', 00H
	DB	't', 00H, 'r', 00H, 'u', 00H, 'e', 00H, 't', 00H, 'y', 00H, 'p'
	DB	00H, 'e', 00H, '.', 00H, 'h', 00H, 00H, 00H
	ORG $+4
$SG82525 DB	's', 00H, 'i', 00H, 'z', 00H, 'e', 00H, ' ', 00H, '<', 00H
	DB	' ', 00H, '0', 00H, 'x', 00H, '4', 00H, '0', 00H, '0', 00H, '0'
	DB	00H, '0', 00H, '0', 00H, '0', 00H, '0', 00H, 00H, 00H
	ORG $+4
$SG82548 DB	'W', 00H, ':', 00H, '\', 00H, 'c', 00H, 'p', 00H, 'p', 00H
	DB	'\', 00H, 'v', 00H, 'o', 00H, 'i', 00H, 'd', 00H, '\', 00H, 'r'
	DB	00H, 'x', 00H, '\', 00H, 's', 00H, 't', 00H, 'b', 00H, '_', 00H
	DB	't', 00H, 'r', 00H, 'u', 00H, 'e', 00H, 't', 00H, 'y', 00H, 'p'
	DB	00H, 'e', 00H, '.', 00H, 'h', 00H, 00H, 00H
	ORG $+4
$SG82549 DB	'o', 00H, 'f', 00H, 'f', 00H, 's', 00H, 'i', 00H, 'z', 00H
	DB	'e', 00H, ' ', 00H, '>', 00H, '=', 00H, ' ', 00H, '1', 00H, ' '
	DB	00H, '&', 00H, '&', 00H, ' ', 00H, 'o', 00H, 'f', 00H, 'f', 00H
	DB	's', 00H, 'i', 00H, 'z', 00H, 'e', 00H, ' ', 00H, '<', 00H, '='
	DB	00H, ' ', 00H, '4', 00H, 00H, 00H
	ORG $+6
$SG82566 DB	'W', 00H, ':', 00H, '\', 00H, 'c', 00H, 'p', 00H, 'p', 00H
	DB	'\', 00H, 'v', 00H, 'o', 00H, 'i', 00H, 'd', 00H, '\', 00H, 'r'
	DB	00H, 'x', 00H, '\', 00H, 's', 00H, 't', 00H, 'b', 00H, '_', 00H
	DB	't', 00H, 'r', 00H, 'u', 00H, 'e', 00H, 't', 00H, 'y', 00H, 'p'
	DB	00H, 'e', 00H, '.', 00H, 'h', 00H, 00H, 00H
	ORG $+4
$SG82578 DB	'W', 00H, ':', 00H, '\', 00H, 'c', 00H, 'p', 00H, 'p', 00H
	DB	'\', 00H, 'v', 00H, 'o', 00H, 'i', 00H, 'd', 00H, '\', 00H, 'r'
	DB	00H, 'x', 00H, '\', 00H, 's', 00H, 't', 00H, 'b', 00H, '_', 00H
	DB	't', 00H, 'r', 00H, 'u', 00H, 'e', 00H, 't', 00H, 'y', 00H, 'p'
	DB	00H, 'e', 00H, '.', 00H, 'h', 00H, 00H, 00H
	ORG $+4
$SG82579 DB	'b', 00H, '0', 00H, ' ', 00H, '>', 00H, '=', 00H, ' ', 00H
	DB	'2', 00H, '8', 00H, 00H, 00H
	ORG $+6
$SG82632 DB	'W', 00H, ':', 00H, '\', 00H, 'c', 00H, 'p', 00H, 'p', 00H
	DB	'\', 00H, 'v', 00H, 'o', 00H, 'i', 00H, 'd', 00H, '\', 00H, 'r'
	DB	00H, 'x', 00H, '\', 00H, 's', 00H, 't', 00H, 'b', 00H, '_', 00H
	DB	't', 00H, 'r', 00H, 'u', 00H, 'e', 00H, 't', 00H, 'y', 00H, 'p'
	DB	00H, 'e', 00H, '.', 00H, 'h', 00H, 00H, 00H
	ORG $+4
$SG82633 DB	'i', 00H, ' ', 00H, '>', 00H, '=', 00H, ' ', 00H, '0', 00H
	DB	' ', 00H, '&', 00H, '&', 00H, ' ', 00H, 'i', 00H, ' ', 00H, '<'
	DB	00H, ' ', 00H, 'c', 00H, 'o', 00H, 'u', 00H, 'n', 00H, 't', 00H
	DB	00H, 00H
$SG82634 DB	'W', 00H, ':', 00H, '\', 00H, 'c', 00H, 'p', 00H, 'p', 00H
	DB	'\', 00H, 'v', 00H, 'o', 00H, 'i', 00H, 'd', 00H, '\', 00H, 'r'
	DB	00H, 'x', 00H, '\', 00H, 's', 00H, 't', 00H, 'b', 00H, '_', 00H
	DB	't', 00H, 'r', 00H, 'u', 00H, 'e', 00H, 't', 00H, 'y', 00H, 'p'
	DB	00H, 'e', 00H, '.', 00H, 'h', 00H, 00H, 00H
	ORG $+4
$SG82635 DB	'o', 00H, 'f', 00H, 'f', 00H, 's', 00H, 'i', 00H, 'z', 00H
	DB	'e', 00H, ' ', 00H, '>', 00H, '=', 00H, ' ', 00H, '1', 00H, ' '
	DB	00H, '&', 00H, '&', 00H, ' ', 00H, 'o', 00H, 'f', 00H, 'f', 00H
	DB	's', 00H, 'i', 00H, 'z', 00H, 'e', 00H, ' ', 00H, '<', 00H, '='
	DB	00H, ' ', 00H, '4', 00H, 00H, 00H
	ORG $+6
$SG82852 DB	'W', 00H, ':', 00H, '\', 00H, 'c', 00H, 'p', 00H, 'p', 00H
	DB	'\', 00H, 'v', 00H, 'o', 00H, 'i', 00H, 'd', 00H, '\', 00H, 'r'
	DB	00H, 'x', 00H, '\', 00H, 's', 00H, 't', 00H, 'b', 00H, '_', 00H
	DB	't', 00H, 'r', 00H, 'u', 00H, 'e', 00H, 't', 00H, 'y', 00H, 'p'
	DB	00H, 'e', 00H, '.', 00H, 'h', 00H, 00H, 00H
	ORG $+4
$SG82870 DB	'W', 00H, ':', 00H, '\', 00H, 'c', 00H, 'p', 00H, 'p', 00H
	DB	'\', 00H, 'v', 00H, 'o', 00H, 'i', 00H, 'd', 00H, '\', 00H, 'r'
	DB	00H, 'x', 00H, '\', 00H, 's', 00H, 't', 00H, 'b', 00H, '_', 00H
	DB	't', 00H, 'r', 00H, 'u', 00H, 'e', 00H, 't', 00H, 'y', 00H, 'p'
	DB	00H, 'e', 00H, '.', 00H, 'h', 00H, 00H, 00H
	ORG $+4
$SG82907 DB	'W', 00H, ':', 00H, '\', 00H, 'c', 00H, 'p', 00H, 'p', 00H
	DB	'\', 00H, 'v', 00H, 'o', 00H, 'i', 00H, 'd', 00H, '\', 00H, 'r'
	DB	00H, 'x', 00H, '\', 00H, 's', 00H, 't', 00H, 'b', 00H, '_', 00H
	DB	't', 00H, 'r', 00H, 'u', 00H, 'e', 00H, 't', 00H, 'y', 00H, 'p'
	DB	00H, 'e', 00H, '.', 00H, 'h', 00H, 00H, 00H
	ORG $+4
$SG82908 DB	'!', 00H, 'i', 00H, 'n', 00H, 'f', 00H, 'o', 00H, '-', 00H
	DB	'>', 00H, 'c', 00H, 'f', 00H, 'f', 00H, '.', 00H, 's', 00H, 'i'
	DB	00H, 'z', 00H, 'e', 00H, 00H, 00H
$SG83096 DB	'stbtt__GetGlyphShapeTT', 00H
	ORG $+1
$SG83097 DB	'W:\cpp\void\rx\stb_truetype.h', 00H
	ORG $+2
$SG83126 DB	'W', 00H, ':', 00H, '\', 00H, 'c', 00H, 'p', 00H, 'p', 00H
	DB	'\', 00H, 'v', 00H, 'o', 00H, 'i', 00H, 'd', 00H, '\', 00H, 'r'
	DB	00H, 'x', 00H, '\', 00H, 's', 00H, 't', 00H, 'b', 00H, '_', 00H
	DB	't', 00H, 'r', 00H, 'u', 00H, 'e', 00H, 't', 00H, 'y', 00H, 'p'
	DB	00H, 'e', 00H, '.', 00H, 'h', 00H, 00H, 00H
	ORG $+4
$SG83134 DB	'stbtt__GetGlyphShapeTT', 00H
	ORG $+1
$SG83135 DB	'W:\cpp\void\rx\stb_truetype.h', 00H
	ORG $+2
$SG83138 DB	'stbtt__GetGlyphShapeTT', 00H
	ORG $+1
$SG83139 DB	'W:\cpp\void\rx\stb_truetype.h', 00H
	ORG $+2
$SG83141 DB	'stbtt__GetGlyphShapeTT', 00H
	ORG $+1
$SG83142 DB	'W:\cpp\void\rx\stb_truetype.h', 00H
	ORG $+2
$SG83145 DB	'stbtt__GetGlyphShapeTT', 00H
	ORG $+1
$SG83146 DB	'W:\cpp\void\rx\stb_truetype.h', 00H
	ORG $+2
$SG83147 DB	'stbtt__GetGlyphShapeTT', 00H
	ORG $+1
$SG83148 DB	'W:\cpp\void\rx\stb_truetype.h', 00H
	ORG $+2
$SG83451 DB	'stbtt__GetGlyphShapeT2', 00H
	ORG $+1
$SG83452 DB	'W:\cpp\void\rx\stb_truetype.h', 00H
	ORG $+2
$SG83454 DB	'W', 00H, ':', 00H, '\', 00H, 'c', 00H, 'p', 00H, 'p', 00H
	DB	'\', 00H, 'v', 00H, 'o', 00H, 'i', 00H, 'd', 00H, '\', 00H, 'r'
	DB	00H, 'x', 00H, '\', 00H, 's', 00H, 't', 00H, 'b', 00H, '_', 00H
	DB	't', 00H, 'r', 00H, 'u', 00H, 'e', 00H, 't', 00H, 'y', 00H, 'p'
	DB	00H, 'e', 00H, '.', 00H, 'h', 00H, 00H, 00H
	ORG $+4
$SG83455 DB	'o', 00H, 'u', 00H, 't', 00H, 'p', 00H, 'u', 00H, 't', 00H
	DB	'_', 00H, 'c', 00H, 't', 00H, 'x', 00H, '.', 00H, 'n', 00H, 'u'
	DB	00H, 'm', 00H, '_', 00H, 'v', 00H, 'e', 00H, 'r', 00H, 't', 00H
	DB	'i', 00H, 'c', 00H, 'e', 00H, 's', 00H, ' ', 00H, '=', 00H, '='
	DB	00H, ' ', 00H, 'c', 00H, 'o', 00H, 'u', 00H, 'n', 00H, 't', 00H
	DB	'_', 00H, 'c', 00H, 't', 00H, 'x', 00H, '.', 00H, 'n', 00H, 'u'
	DB	00H, 'm', 00H, '_', 00H, 'v', 00H, 'e', 00H, 'r', 00H, 't', 00H
	DB	'i', 00H, 'c', 00H, 'e', 00H, 's', 00H, 00H, 00H
	ORG $+4
$SG83789 DB	'stbtt_FreeShape', 00H
$SG83790 DB	'W:\cpp\void\rx\stb_truetype.h', 00H
	ORG $+2
$SG83951 DB	'stbtt__hheap_alloc', 00H
	ORG $+5
$SG83952 DB	'W:\cpp\void\rx\stb_truetype.h', 00H
	ORG $+2
$SG83971 DB	'stbtt__hheap_cleanup', 00H
	ORG $+3
$SG83972 DB	'W:\cpp\void\rx\stb_truetype.h', 00H
	ORG $+2
$SG84007 DB	'W', 00H, ':', 00H, '\', 00H, 'c', 00H, 'p', 00H, 'p', 00H
	DB	'\', 00H, 'v', 00H, 'o', 00H, 'i', 00H, 'd', 00H, '\', 00H, 'r'
	DB	00H, 'x', 00H, '\', 00H, 's', 00H, 't', 00H, 'b', 00H, '_', 00H
	DB	't', 00H, 'r', 00H, 'u', 00H, 'e', 00H, 't', 00H, 'y', 00H, 'p'
	DB	00H, 'e', 00H, '.', 00H, 'h', 00H, 00H, 00H
	ORG $+4
$SG84008 DB	'z', 00H, ' ', 00H, '!', 00H, '=', 00H, ' ', 00H, '(', 00H
	DB	'(', 00H, 'v', 00H, 'o', 00H, 'i', 00H, 'd', 00H, ' ', 00H, '*'
	DB	00H, ')', 00H, '0', 00H, ')', 00H, 00H, 00H
	ORG $+6
$SG84043 DB	'W', 00H, ':', 00H, '\', 00H, 'c', 00H, 'p', 00H, 'p', 00H
	DB	'\', 00H, 'v', 00H, 'o', 00H, 'i', 00H, 'd', 00H, '\', 00H, 'r'
	DB	00H, 'x', 00H, '\', 00H, 's', 00H, 't', 00H, 'b', 00H, '_', 00H
	DB	't', 00H, 'r', 00H, 'u', 00H, 'e', 00H, 't', 00H, 'y', 00H, 'p'
	DB	00H, 'e', 00H, '.', 00H, 'h', 00H, 00H, 00H
	ORG $+4
$SG84044 DB	'y', 00H, '0', 00H, ' ', 00H, '<', 00H, ' ', 00H, 'y', 00H
	DB	'1', 00H, 00H, 00H
$SG84045 DB	'W', 00H, ':', 00H, '\', 00H, 'c', 00H, 'p', 00H, 'p', 00H
	DB	'\', 00H, 'v', 00H, 'o', 00H, 'i', 00H, 'd', 00H, '\', 00H, 'r'
	DB	00H, 'x', 00H, '\', 00H, 's', 00H, 't', 00H, 'b', 00H, '_', 00H
	DB	't', 00H, 'r', 00H, 'u', 00H, 'e', 00H, 't', 00H, 'y', 00H, 'p'
	DB	00H, 'e', 00H, '.', 00H, 'h', 00H, 00H, 00H
	ORG $+4
$SG84046 DB	'e', 00H, '-', 00H, '>', 00H, 's', 00H, 'y', 00H, ' ', 00H
	DB	'<', 00H, '=', 00H, ' ', 00H, 'e', 00H, '-', 00H, '>', 00H, 'e'
	DB	00H, 'y', 00H, 00H, 00H
	ORG $+2
$SG84053 DB	'W', 00H, ':', 00H, '\', 00H, 'c', 00H, 'p', 00H, 'p', 00H
	DB	'\', 00H, 'v', 00H, 'o', 00H, 'i', 00H, 'd', 00H, '\', 00H, 'r'
	DB	00H, 'x', 00H, '\', 00H, 's', 00H, 't', 00H, 'b', 00H, '_', 00H
	DB	't', 00H, 'r', 00H, 'u', 00H, 'e', 00H, 't', 00H, 'y', 00H, 'p'
	DB	00H, 'e', 00H, '.', 00H, 'h', 00H, 00H, 00H
	ORG $+4
$SG84054 DB	'x', 00H, '1', 00H, ' ', 00H, '<', 00H, '=', 00H, ' ', 00H
	DB	'x', 00H, '+', 00H, '1', 00H, 00H, 00H
	ORG $+4
$SG84057 DB	'W', 00H, ':', 00H, '\', 00H, 'c', 00H, 'p', 00H, 'p', 00H
	DB	'\', 00H, 'v', 00H, 'o', 00H, 'i', 00H, 'd', 00H, '\', 00H, 'r'
	DB	00H, 'x', 00H, '\', 00H, 's', 00H, 't', 00H, 'b', 00H, '_', 00H
	DB	't', 00H, 'r', 00H, 'u', 00H, 'e', 00H, 't', 00H, 'y', 00H, 'p'
	DB	00H, 'e', 00H, '.', 00H, 'h', 00H, 00H, 00H
	ORG $+4
$SG84058 DB	'x', 00H, '1', 00H, ' ', 00H, '>', 00H, '=', 00H, ' ', 00H
	DB	'x', 00H, 00H, 00H
$SG84061 DB	'W', 00H, ':', 00H, '\', 00H, 'c', 00H, 'p', 00H, 'p', 00H
	DB	'\', 00H, 'v', 00H, 'o', 00H, 'i', 00H, 'd', 00H, '\', 00H, 'r'
	DB	00H, 'x', 00H, '\', 00H, 's', 00H, 't', 00H, 'b', 00H, '_', 00H
	DB	't', 00H, 'r', 00H, 'u', 00H, 'e', 00H, 't', 00H, 'y', 00H, 'p'
	DB	00H, 'e', 00H, '.', 00H, 'h', 00H, 00H, 00H
	ORG $+4
$SG84062 DB	'x', 00H, '1', 00H, ' ', 00H, '<', 00H, '=', 00H, ' ', 00H
	DB	'x', 00H, 00H, 00H
$SG84065 DB	'W', 00H, ':', 00H, '\', 00H, 'c', 00H, 'p', 00H, 'p', 00H
	DB	'\', 00H, 'v', 00H, 'o', 00H, 'i', 00H, 'd', 00H, '\', 00H, 'r'
	DB	00H, 'x', 00H, '\', 00H, 's', 00H, 't', 00H, 'b', 00H, '_', 00H
	DB	't', 00H, 'r', 00H, 'u', 00H, 'e', 00H, 't', 00H, 'y', 00H, 'p'
	DB	00H, 'e', 00H, '.', 00H, 'h', 00H, 00H, 00H
	ORG $+4
$SG84066 DB	'x', 00H, '1', 00H, ' ', 00H, '>', 00H, '=', 00H, ' ', 00H
	DB	'x', 00H, '+', 00H, '1', 00H, 00H, 00H
	ORG $+4
$SG84067 DB	'W', 00H, ':', 00H, '\', 00H, 'c', 00H, 'p', 00H, 'p', 00H
	DB	'\', 00H, 'v', 00H, 'o', 00H, 'i', 00H, 'd', 00H, '\', 00H, 'r'
	DB	00H, 'x', 00H, '\', 00H, 's', 00H, 't', 00H, 'b', 00H, '_', 00H
	DB	't', 00H, 'r', 00H, 'u', 00H, 'e', 00H, 't', 00H, 'y', 00H, 'p'
	DB	00H, 'e', 00H, '.', 00H, 'h', 00H, 00H, 00H
	ORG $+4
$SG84068 DB	'x', 00H, '1', 00H, ' ', 00H, '>', 00H, '=', 00H, ' ', 00H
	DB	'x', 00H, ' ', 00H, '&', 00H, '&', 00H, ' ', 00H, 'x', 00H, '1'
	DB	00H, ' ', 00H, '<', 00H, '=', 00H, ' ', 00H, 'x', 00H, '+', 00H
	DB	'1', 00H, 00H, 00H
	ORG $+6
$SG84073 DB	'W', 00H, ':', 00H, '\', 00H, 'c', 00H, 'p', 00H, 'p', 00H
	DB	'\', 00H, 'v', 00H, 'o', 00H, 'i', 00H, 'd', 00H, '\', 00H, 'r'
	DB	00H, 'x', 00H, '\', 00H, 's', 00H, 't', 00H, 'b', 00H, '_', 00H
	DB	't', 00H, 'r', 00H, 'u', 00H, 'e', 00H, 't', 00H, 'y', 00H, 'p'
	DB	00H, 'e', 00H, '.', 00H, 'h', 00H, 00H, 00H
	ORG $+4
$SG84074 DB	'x', 00H, '0', 00H, ' ', 00H, '>', 00H, '=', 00H, ' ', 00H
	DB	'x', 00H, ' ', 00H, '&', 00H, '&', 00H, ' ', 00H, 'x', 00H, '0'
	DB	00H, ' ', 00H, '<', 00H, '=', 00H, ' ', 00H, 'x', 00H, '+', 00H
	DB	'1', 00H, ' ', 00H, '&', 00H, '&', 00H, ' ', 00H, 'x', 00H, '1'
	DB	00H, ' ', 00H, '>', 00H, '=', 00H, ' ', 00H, 'x', 00H, ' ', 00H
	DB	'&', 00H, '&', 00H, ' ', 00H, 'x', 00H, '1', 00H, ' ', 00H, '<'
	DB	00H, '=', 00H, ' ', 00H, 'x', 00H, '+', 00H, '1', 00H, 00H, 00H
	ORG $+6
$SG84087 DB	'W', 00H, ':', 00H, '\', 00H, 'c', 00H, 'p', 00H, 'p', 00H
	DB	'\', 00H, 'v', 00H, 'o', 00H, 'i', 00H, 'd', 00H, '\', 00H, 'r'
	DB	00H, 'x', 00H, '\', 00H, 's', 00H, 't', 00H, 'b', 00H, '_', 00H
	DB	't', 00H, 'r', 00H, 'u', 00H, 'e', 00H, 't', 00H, 'y', 00H, 'p'
	DB	00H, 'e', 00H, '.', 00H, 'h', 00H, 00H, 00H
	ORG $+4
$SG84088 DB	't', 00H, 'o', 00H, 'p', 00H, '_', 00H, 'w', 00H, 'i', 00H
	DB	'd', 00H, 't', 00H, 'h', 00H, ' ', 00H, '>', 00H, '=', 00H, ' '
	DB	00H, '0', 00H, 00H, 00H
	ORG $+2
$SG84089 DB	'W', 00H, ':', 00H, '\', 00H, 'c', 00H, 'p', 00H, 'p', 00H
	DB	'\', 00H, 'v', 00H, 'o', 00H, 'i', 00H, 'd', 00H, '\', 00H, 'r'
	DB	00H, 'x', 00H, '\', 00H, 's', 00H, 't', 00H, 'b', 00H, '_', 00H
	DB	't', 00H, 'r', 00H, 'u', 00H, 'e', 00H, 't', 00H, 'y', 00H, 'p'
	DB	00H, 'e', 00H, '.', 00H, 'h', 00H, 00H, 00H
	ORG $+4
$SG84090 DB	'b', 00H, 'o', 00H, 't', 00H, 't', 00H, 'o', 00H, 'm', 00H
	DB	'_', 00H, 'w', 00H, 'i', 00H, 'd', 00H, 't', 00H, 'h', 00H, ' '
	DB	00H, '>', 00H, '=', 00H, ' ', 00H, '0', 00H, 00H, 00H
	ORG $+4
$SG84182 DB	'W', 00H, ':', 00H, '\', 00H, 'c', 00H, 'p', 00H, 'p', 00H
	DB	'\', 00H, 'v', 00H, 'o', 00H, 'i', 00H, 'd', 00H, '\', 00H, 'r'
	DB	00H, 'x', 00H, '\', 00H, 's', 00H, 't', 00H, 'b', 00H, '_', 00H
	DB	't', 00H, 'r', 00H, 'u', 00H, 'e', 00H, 't', 00H, 'y', 00H, 'p'
	DB	00H, 'e', 00H, '.', 00H, 'h', 00H, 00H, 00H
	ORG $+4
$SG84183 DB	'e', 00H, '-', 00H, '>', 00H, 'e', 00H, 'y', 00H, ' ', 00H
	DB	'>', 00H, '=', 00H, ' ', 00H, 'y', 00H, '_', 00H, 't', 00H, 'o'
	DB	00H, 'p', 00H, 00H, 00H
	ORG $+2
$SG84189 DB	'W', 00H, ':', 00H, '\', 00H, 'c', 00H, 'p', 00H, 'p', 00H
	DB	'\', 00H, 'v', 00H, 'o', 00H, 'i', 00H, 'd', 00H, '\', 00H, 'r'
	DB	00H, 'x', 00H, '\', 00H, 's', 00H, 't', 00H, 'b', 00H, '_', 00H
	DB	't', 00H, 'r', 00H, 'u', 00H, 'e', 00H, 't', 00H, 'y', 00H, 'p'
	DB	00H, 'e', 00H, '.', 00H, 'h', 00H, 00H, 00H
$SG85883 DB	'name', 00H
	ORG $+7
$SG84190 DB	'e', 00H, '-', 00H, '>', 00H, 's', 00H, 'y', 00H, ' ', 00H
	DB	'<', 00H, '=', 00H, ' ', 00H, 'y', 00H, '_', 00H, 'b', 00H, 'o'
	DB	00H, 't', 00H, 't', 00H, 'o', 00H, 'm', 00H, ' ', 00H, '&', 00H
	DB	'&', 00H, ' ', 00H, 'e', 00H, '-', 00H, '>', 00H, 'e', 00H, 'y'
	DB	00H, ' ', 00H, '>', 00H, '=', 00H, ' ', 00H, 'y', 00H, '_', 00H
	DB	't', 00H, 'o', 00H, 'p', 00H, 00H, 00H
$SG84199 DB	'W', 00H, ':', 00H, '\', 00H, 'c', 00H, 'p', 00H, 'p', 00H
	DB	'\', 00H, 'v', 00H, 'o', 00H, 'i', 00H, 'd', 00H, '\', 00H, 'r'
	DB	00H, 'x', 00H, '\', 00H, 's', 00H, 't', 00H, 'b', 00H, '_', 00H
	DB	't', 00H, 'r', 00H, 'u', 00H, 'e', 00H, 't', 00H, 'y', 00H, 'p'
	DB	00H, 'e', 00H, '.', 00H, 'h', 00H, 00H, 00H
	ORG $+4
$SG84200 DB	'x', 00H, ' ', 00H, '>', 00H, '=', 00H, ' ', 00H, '0', 00H
	DB	' ', 00H, '&', 00H, '&', 00H, ' ', 00H, 'x', 00H, ' ', 00H, '<'
	DB	00H, ' ', 00H, 'l', 00H, 'e', 00H, 'n', 00H, 00H, 00H
	ORG $+4
$SG84202 DB	'W', 00H, ':', 00H, '\', 00H, 'c', 00H, 'p', 00H, 'p', 00H
	DB	'\', 00H, 'v', 00H, 'o', 00H, 'i', 00H, 'd', 00H, '\', 00H, 'r'
	DB	00H, 'x', 00H, '\', 00H, 's', 00H, 't', 00H, 'b', 00H, '_', 00H
	DB	't', 00H, 'r', 00H, 'u', 00H, 'e', 00H, 't', 00H, 'y', 00H, 'p'
	DB	00H, 'e', 00H, '.', 00H, 'h', 00H, 00H, 00H
	ORG $+4
$SG84203 DB	'd', 00H, 'y', 00H, ' ', 00H, '>', 00H, '=', 00H, ' ', 00H
	DB	'0', 00H, 00H, 00H
$SG84204 DB	'W', 00H, ':', 00H, '\', 00H, 'c', 00H, 'p', 00H, 'p', 00H
	DB	'\', 00H, 'v', 00H, 'o', 00H, 'i', 00H, 'd', 00H, '\', 00H, 'r'
	DB	00H, 'x', 00H, '\', 00H, 's', 00H, 't', 00H, 'b', 00H, '_', 00H
	DB	't', 00H, 'r', 00H, 'u', 00H, 'e', 00H, 't', 00H, 'y', 00H, 'p'
	DB	00H, 'e', 00H, '.', 00H, 'h', 00H, 00H, 00H
	ORG $+4
$SG84205 DB	'd', 00H, 'x', 00H, ' ', 00H, '>', 00H, '=', 00H, ' ', 00H
	DB	'0', 00H, 00H, 00H
$SG84208 DB	'W', 00H, ':', 00H, '\', 00H, 'c', 00H, 'p', 00H, 'p', 00H
	DB	'\', 00H, 'v', 00H, 'o', 00H, 'i', 00H, 'd', 00H, '\', 00H, 'r'
	DB	00H, 'x', 00H, '\', 00H, 's', 00H, 't', 00H, 'b', 00H, '_', 00H
	DB	't', 00H, 'r', 00H, 'u', 00H, 'e', 00H, 't', 00H, 'y', 00H, 'p'
	DB	00H, 'e', 00H, '.', 00H, 'h', 00H, 00H, 00H
	ORG $+4
$SG84209 DB	'f', 00H, 'a', 00H, 'b', 00H, 's', 00H, '(', 00H, 'a', 00H
	DB	'r', 00H, 'e', 00H, 'a', 00H, ')', 00H, ' ', 00H, '<', 00H, '='
	DB	00H, ' ', 00H, '1', 00H, '.', 00H, '0', 00H, '1', 00H, 'f', 00H
	DB	00H, 00H
$SG84210 DB	'W', 00H, ':', 00H, '\', 00H, 'c', 00H, 'p', 00H, 'p', 00H
	DB	'\', 00H, 'v', 00H, 'o', 00H, 'i', 00H, 'd', 00H, '\', 00H, 'r'
	DB	00H, 'x', 00H, '\', 00H, 's', 00H, 't', 00H, 'b', 00H, '_', 00H
	DB	't', 00H, 'r', 00H, 'u', 00H, 'e', 00H, 't', 00H, 'y', 00H, 'p'
	DB	00H, 'e', 00H, '.', 00H, 'h', 00H, 00H, 00H
	ORG $+4
$SG84211 DB	's', 00H, 'y', 00H, '1', 00H, ' ', 00H, '>', 00H, ' ', 00H
	DB	'y', 00H, '_', 00H, 'f', 00H, 'i', 00H, 'n', 00H, 'a', 00H, 'l'
	DB	00H, '-', 00H, '0', 00H, '.', 00H, '0', 00H, '1', 00H, 'f', 00H
	DB	00H, 00H
$SG84283 DB	'stbtt__rasterize_sorted_edges', 00H
	ORG $+2
$SG84284 DB	'W:\cpp\void\rx\stb_truetype.h', 00H
	ORG $+2
$SG84287 DB	'W', 00H, ':', 00H, '\', 00H, 'c', 00H, 'p', 00H, 'p', 00H
	DB	'\', 00H, 'v', 00H, 'o', 00H, 'i', 00H, 'd', 00H, '\', 00H, 'r'
	DB	00H, 'x', 00H, '\', 00H, 's', 00H, 't', 00H, 'b', 00H, '_', 00H
	DB	't', 00H, 'r', 00H, 'u', 00H, 'e', 00H, 't', 00H, 'y', 00H, 'p'
	DB	00H, 'e', 00H, '.', 00H, 'h', 00H, 00H, 00H
	ORG $+4
$SG84288 DB	'z', 00H, '-', 00H, '>', 00H, 'd', 00H, 'i', 00H, 'r', 00H
	DB	'e', 00H, 'c', 00H, 't', 00H, 'i', 00H, 'o', 00H, 'n', 00H, 00H
	DB	00H
	ORG $+6
$SG84293 DB	'W', 00H, ':', 00H, '\', 00H, 'c', 00H, 'p', 00H, 'p', 00H
	DB	'\', 00H, 'v', 00H, 'o', 00H, 'i', 00H, 'd', 00H, '\', 00H, 'r'
	DB	00H, 'x', 00H, '\', 00H, 's', 00H, 't', 00H, 'b', 00H, '_', 00H
	DB	't', 00H, 'r', 00H, 'u', 00H, 'e', 00H, 't', 00H, 'y', 00H, 'p'
	DB	00H, 'e', 00H, '.', 00H, 'h', 00H, 00H, 00H
	ORG $+4
$SG84294 DB	'z', 00H, '-', 00H, '>', 00H, 'e', 00H, 'y', 00H, ' ', 00H
	DB	'>', 00H, '=', 00H, ' ', 00H, 's', 00H, 'c', 00H, 'a', 00H, 'n'
	DB	00H, '_', 00H, 'y', 00H, '_', 00H, 't', 00H, 'o', 00H, 'p', 00H
	DB	00H, 00H
$SG84298 DB	'stbtt__rasterize_sorted_edges', 00H
	ORG $+2
$SG84299 DB	'W:\cpp\void\rx\stb_truetype.h', 00H
	ORG $+2
$SG84407 DB	'stbtt__rasterize', 00H
	ORG $+7
$SG84408 DB	'W:\cpp\void\rx\stb_truetype.h', 00H
	ORG $+2
$SG84412 DB	'stbtt__rasterize', 00H
	ORG $+7
$SG84413 DB	'W:\cpp\void\rx\stb_truetype.h', 00H
	ORG $+2
$SG84549 DB	'stbtt_FlattenCurves', 00H
	ORG $+4
$SG84550 DB	'W:\cpp\void\rx\stb_truetype.h', 00H
	ORG $+2
$SG84553 DB	'stbtt_FlattenCurves', 00H
	ORG $+4
$SG84554 DB	'W:\cpp\void\rx\stb_truetype.h', 00H
	ORG $+2
$SG84561 DB	'stbtt_FlattenCurves', 00H
	ORG $+4
$SG84562 DB	'W:\cpp\void\rx\stb_truetype.h', 00H
	ORG $+2
$SG84563 DB	'stbtt_FlattenCurves', 00H
	ORG $+4
$SG84564 DB	'W:\cpp\void\rx\stb_truetype.h', 00H
	ORG $+2
$SG84596 DB	'stbtt_Rasterize', 00H
$SG84597 DB	'W:\cpp\void\rx\stb_truetype.h', 00H
	ORG $+2
$SG84598 DB	'stbtt_Rasterize', 00H
$SG84599 DB	'W:\cpp\void\rx\stb_truetype.h', 00H
	ORG $+2
$SG84605 DB	'stbtt_FreeBitmap', 00H
	ORG $+7
$SG84606 DB	'W:\cpp\void\rx\stb_truetype.h', 00H
	ORG $+2
$SG84641 DB	'stbtt_GetGlyphBitmapSubpixel', 00H
	ORG $+3
$SG84642 DB	'W:\cpp\void\rx\stb_truetype.h', 00H
	ORG $+2
$SG84648 DB	'stbtt_GetGlyphBitmapSubpixel', 00H
	ORG $+3
$SG84649 DB	'W:\cpp\void\rx\stb_truetype.h', 00H
	ORG $+2
$SG84651 DB	'stbtt_GetGlyphBitmapSubpixel', 00H
	ORG $+3
$SG84652 DB	'W:\cpp\void\rx\stb_truetype.h', 00H
	ORG $+2
$SG84697 DB	'stbtt_MakeGlyphBitmapSubpixel', 00H
	ORG $+2
$SG84698 DB	'W:\cpp\void\rx\stb_truetype.h', 00H
	ORG $+2
$SG84873 DB	'W', 00H, ':', 00H, '\', 00H, 'c', 00H, 'p', 00H, 'p', 00H
	DB	'\', 00H, 'v', 00H, 'o', 00H, 'i', 00H, 'd', 00H, '\', 00H, 'r'
	DB	00H, 'x', 00H, '\', 00H, 's', 00H, 't', 00H, 'b', 00H, '_', 00H
	DB	't', 00H, 'r', 00H, 'u', 00H, 'e', 00H, 't', 00H, 'y', 00H, 'p'
	DB	00H, 'e', 00H, '.', 00H, 'h', 00H, 00H, 00H
	ORG $+4
$SG84874 DB	'x', 00H, '+', 00H, 'g', 00H, 'w', 00H, ' ', 00H, '<', 00H
	DB	' ', 00H, 'p', 00H, 'w', 00H, 00H, 00H
	ORG $+4
$SG84875 DB	'W', 00H, ':', 00H, '\', 00H, 'c', 00H, 'p', 00H, 'p', 00H
	DB	'\', 00H, 'v', 00H, 'o', 00H, 'i', 00H, 'd', 00H, '\', 00H, 'r'
	DB	00H, 'x', 00H, '\', 00H, 's', 00H, 't', 00H, 'b', 00H, '_', 00H
	DB	't', 00H, 'r', 00H, 'u', 00H, 'e', 00H, 't', 00H, 'y', 00H, 'p'
	DB	00H, 'e', 00H, '.', 00H, 'h', 00H, 00H, 00H
	ORG $+4
$SG84876 DB	'y', 00H, '+', 00H, 'g', 00H, 'h', 00H, ' ', 00H, '<', 00H
	DB	' ', 00H, 'p', 00H, 'h', 00H, 00H, 00H
	ORG $+4
$SG84976 DB	'stbtt_PackBegin', 00H
$SG84977 DB	'W:\cpp\void\rx\stb_truetype.h', 00H
	ORG $+2
$SG84978 DB	'stbtt_PackBegin', 00H
$SG84979 DB	'W:\cpp\void\rx\stb_truetype.h', 00H
	ORG $+2
$SG84983 DB	'stbtt_PackBegin', 00H
$SG84984 DB	'W:\cpp\void\rx\stb_truetype.h', 00H
	ORG $+2
$SG84986 DB	'stbtt_PackBegin', 00H
$SG84987 DB	'W:\cpp\void\rx\stb_truetype.h', 00H
	ORG $+2
$SG84992 DB	'stbtt_PackEnd', 00H
	ORG $+2
$SG84993 DB	'W:\cpp\void\rx\stb_truetype.h', 00H
	ORG $+2
$SG84994 DB	'stbtt_PackEnd', 00H
	ORG $+2
$SG84995 DB	'W:\cpp\void\rx\stb_truetype.h', 00H
	ORG $+2
$SG85007 DB	'W', 00H, ':', 00H, '\', 00H, 'c', 00H, 'p', 00H, 'p', 00H
	DB	'\', 00H, 'v', 00H, 'o', 00H, 'i', 00H, 'd', 00H, '\', 00H, 'r'
	DB	00H, 'x', 00H, '\', 00H, 's', 00H, 't', 00H, 'b', 00H, '_', 00H
	DB	't', 00H, 'r', 00H, 'u', 00H, 'e', 00H, 't', 00H, 'y', 00H, 'p'
	DB	00H, 'e', 00H, '.', 00H, 'h', 00H, 00H, 00H
	ORG $+4
$SG85008 DB	'h', 00H, '_', 00H, 'o', 00H, 'v', 00H, 'e', 00H, 'r', 00H
	DB	's', 00H, 'a', 00H, 'm', 00H, 'p', 00H, 'l', 00H, 'e', 00H, ' '
	DB	00H, '<', 00H, '=', 00H, ' ', 00H, '8', 00H, 00H, 00H
	ORG $+4
$SG85009 DB	'W', 00H, ':', 00H, '\', 00H, 'c', 00H, 'p', 00H, 'p', 00H
	DB	'\', 00H, 'v', 00H, 'o', 00H, 'i', 00H, 'd', 00H, '\', 00H, 'r'
	DB	00H, 'x', 00H, '\', 00H, 's', 00H, 't', 00H, 'b', 00H, '_', 00H
	DB	't', 00H, 'r', 00H, 'u', 00H, 'e', 00H, 't', 00H, 'y', 00H, 'p'
	DB	00H, 'e', 00H, '.', 00H, 'h', 00H, 00H, 00H
	ORG $+4
$SG85010 DB	'v', 00H, '_', 00H, 'o', 00H, 'v', 00H, 'e', 00H, 'r', 00H
	DB	's', 00H, 'a', 00H, 'm', 00H, 'p', 00H, 'l', 00H, 'e', 00H, ' '
	DB	00H, '<', 00H, '=', 00H, ' ', 00H, '8', 00H, 00H, 00H
	ORG $+4
$SG85071 DB	'W', 00H, ':', 00H, '\', 00H, 'c', 00H, 'p', 00H, 'p', 00H
	DB	'\', 00H, 'v', 00H, 'o', 00H, 'i', 00H, 'd', 00H, '\', 00H, 'r'
	DB	00H, 'x', 00H, '\', 00H, 's', 00H, 't', 00H, 'b', 00H, '_', 00H
	DB	't', 00H, 'r', 00H, 'u', 00H, 'e', 00H, 't', 00H, 'y', 00H, 'p'
	DB	00H, 'e', 00H, '.', 00H, 'h', 00H, 00H, 00H
	ORG $+4
$SG85072 DB	'p', 00H, 'i', 00H, 'x', 00H, 'e', 00H, 'l', 00H, 's', 00H
	DB	'[', 00H, 'i', 00H, ']', 00H, ' ', 00H, '=', 00H, '=', 00H, ' '
	DB	00H, '0', 00H, 00H, 00H
	ORG $+2
$SG85126 DB	'W', 00H, ':', 00H, '\', 00H, 'c', 00H, 'p', 00H, 'p', 00H
	DB	'\', 00H, 'v', 00H, 'o', 00H, 'i', 00H, 'd', 00H, '\', 00H, 'r'
	DB	00H, 'x', 00H, '\', 00H, 's', 00H, 't', 00H, 'b', 00H, '_', 00H
	DB	't', 00H, 'r', 00H, 'u', 00H, 'e', 00H, 't', 00H, 'y', 00H, 'p'
	DB	00H, 'e', 00H, '.', 00H, 'h', 00H, 00H, 00H
	ORG $+4
$SG85127 DB	'p', 00H, 'i', 00H, 'x', 00H, 'e', 00H, 'l', 00H, 's', 00H
	DB	'[', 00H, 'i', 00H, '*', 00H, 's', 00H, 't', 00H, 'r', 00H, 'i'
	DB	00H, 'd', 00H, 'e', 00H, '_', 00H, 'i', 00H, 'n', 00H, '_', 00H
	DB	'b', 00H, 'y', 00H, 't', 00H, 'e', 00H, 's', 00H, ']', 00H, ' '
	DB	00H, '=', 00H, '=', 00H, ' ', 00H, '0', 00H, 00H, 00H
	ORG $+2
$SG85298 DB	'stbtt_PackFontRanges', 00H
	ORG $+3
$SG85299 DB	'W:\cpp\void\rx\stb_truetype.h', 00H
	ORG $+2
$SG85301 DB	'stbtt_PackFontRanges', 00H
	ORG $+3
$SG85302 DB	'W:\cpp\void\rx\stb_truetype.h', 00H
	ORG $+2
$SG85673 DB	'stbtt_GetGlyphSDF', 00H
	ORG $+6
$SG85674 DB	'W:\cpp\void\rx\stb_truetype.h', 00H
	ORG $+2
$SG85675 DB	'stbtt_GetGlyphSDF', 00H
	ORG $+6
$SG85676 DB	'W:\cpp\void\rx\stb_truetype.h', 00H
	ORG $+2
$SG85686 DB	'W', 00H, ':', 00H, '\', 00H, 'c', 00H, 'p', 00H, 'p', 00H
	DB	'\', 00H, 'v', 00H, 'o', 00H, 'i', 00H, 'd', 00H, '\', 00H, 'r'
	DB	00H, 'x', 00H, '\', 00H, 's', 00H, 't', 00H, 'b', 00H, '_', 00H
	DB	't', 00H, 'r', 00H, 'u', 00H, 'e', 00H, 't', 00H, 'y', 00H, 'p'
	DB	00H, 'e', 00H, '.', 00H, 'h', 00H, 00H, 00H
	ORG $+4
$SG85687 DB	'i', 00H, ' ', 00H, '!', 00H, '=', 00H, ' ', 00H, '0', 00H
	DB	00H, 00H
	ORG $+2
$SG85710 DB	'stbtt_GetGlyphSDF', 00H
	ORG $+6
$SG85711 DB	'W:\cpp\void\rx\stb_truetype.h', 00H
	ORG $+2
$SG85712 DB	'stbtt_GetGlyphSDF', 00H
	ORG $+6
$SG85713 DB	'W:\cpp\void\rx\stb_truetype.h', 00H
	ORG $+2
$SG85740 DB	'stbtt_FreeSDF', 00H
	ORG $+2
$SG85741 DB	'W:\cpp\void\rx\stb_truetype.h', 00H
	ORG $+2
$SG151629 DB	'assertion triggered', 00H
	ORG $+4
$SG151631 DB	'rxload_font', 00H
	ORG $+4
$SG151632 DB	'W:\cpp\void\rx\rx.c', 00H
	ORG $+4
$SG151634 DB	'assertion triggered', 00H
	ORG $+4
$SG151636 DB	'rxload_font', 00H
	ORG $+4
$SG151637 DB	'W:\cpp\void\rx\rx.c', 00H
	ORG $+4
$SG151638 DB	'rxload_font', 00H
	ORG $+4
$SG151639 DB	'W:\cpp\void\rx\rx.c', 00H
	ORG $+4
$SG151640 DB	'rxload_font', 00H
	ORG $+4
$SG151641 DB	'W:\cpp\void\rx\rx.c', 00H
	ORG $+4
$SG151850 DB	'POSITION', 00H
	ORG $+3
$SG151851 DB	'COLOR', 00H
	ORG $+6
$SG151852 DB	'TEXCOORD', 00H
	ORG $+7
$SG151863 DB	'F', 00H, 'o', 00H, 'n', 00H, 't', 00H, ' ', 00H, 'V', 00H
	DB	'i', 00H, 's', 00H, 'u', 00H, 'a', 00H, 'l', 00H, 'i', 00H, 'z'
	DB	00H, 'e', 00H, 'r', 00H, 00H, 00H
$SG151864 DB	'fonts\UnifrakturCook\UnifrakturCook-Bold.ttf', 00H
	ORG $+3
$SG151865 DB	'Hello, Sailor! %i', 00H
_DATA	ENDS
voltbl	SEGMENT
_volmd	DD	0ffffffffH
	DDSymXIndex: 	FLAT:rxinit
	DD	018H
	DD	0f2fH
_volmd	DD	0ffffffffH
	DDSymXIndex: 	FLAT:rxresize_vertexbuffer
	DD	013H
	DD	089H
_volmd	DD	0ffffffffH
	DDSymXIndex: 	FLAT:rxresize_indexbuffer
	DD	013H
	DD	089H
_volmd	DD	0ffffffffH
	DDSymXIndex: 	FLAT:rxtick
	DD	0eH
	DD	026fH
_volmd	DD	0ffffffffH
	DDSymXIndex: 	FLAT:rxwindow
	DD	011H
	DD	09fH
_volmd	DD	0ffffffffH
	DDSymXIndex: 	FLAT:rxdraw_text
	DD	026H
	DD	0264H
_volmd	DD	0ffffffffH
	DDSymXIndex: 	FLAT:rxdraw_texture_ex
	DD	029H
	DD	0369H
_volmd	DD	0ffffffffH
	DDSymXIndex: 	FLAT:rxload_texture
	DD	026H
	DD	0192H
_volmd	DD	0ffffffffH
	DDSymXIndex: 	FLAT:rxcreate_texture
	DD	026H
	DD	015aH
_volmd	DD	0ffffffffH
	DDSymXIndex: 	FLAT:stbtt__compute_crossings_x
	DD	027H
	DD	08fdH
_volmd	DD	0ffffffffH
	DDSymXIndex: 	FLAT:stbtt__v_prefilter
	DD	021H
	DD	04abH
_volmd	DD	0ffffffffH
	DDSymXIndex: 	FLAT:stbtt__h_prefilter
	DD	021H
	DD	0430H
_volmd	DD	0ffffffffH
	DDSymXIndex: 	FLAT:stbtt__sort_edges_quicksort
	DD	01cH
	DD	0440H
_volmd	DD	0ffffffffH
	DDSymXIndex: 	FLAT:stbtt__sort_edges_ins_sort
	DD	019H
	DD	0140H
_volmd	DD	0ffffffffH
	DDSymXIndex: 	FLAT:stbtt__rasterize_sorted_edges
	DD	027H
	DD	0590H
_volmd	DD	0ffffffffH
	DDSymXIndex: 	FLAT:stbtt__run_charstring
	DD	021H
	DD	01316H
_volmd	DD	0ffffffffH
	DDSymXIndex: 	FLAT:stbtt__GetGlyphShapeTT
	DD	021H
	DD	01546H
_volmd	DD	0ffffffffH
	DDSymXIndex: 	FLAT:stbtt_GetGlyphSDF
	DD	028H
	DD	01a7fH
_volmd	DD	0ffffffffH
	DDSymXIndex: 	FLAT:stbi_write_jpg_core
	DD	02aH
	DD	01237H
_volmd	DD	0ffffffffH
	DDSymXIndex: 	FLAT:stbiw__jpg_processDU
	DD	027H
	DD	06cfH
_volmd	DD	0ffffffffH
	DDSymXIndex: 	FLAT:stbi_write_png_to_mem
	DD	026H
	DD	0c19H
_volmd	DD	0ffffffffH
	DDSymXIndex: 	FLAT:stbi_write_hdr_core
	DD	026H
	DD	0231H
_volmd	DD	0ffffffffH
	DDSymXIndex: 	FLAT:stbiw__write_hdr_scanline
	DD	021H
	DD	05f9H
_volmd	DD	0ffffffffH
	DDSymXIndex: 	FLAT:stbi_write_jpg_to_func
	DD	026H
	DD	092H
_volmd	DD	0ffffffffH
	DDSymXIndex: 	FLAT:stbi_write_hdr_to_func
	DD	026H
	DD	087H
_volmd	DD	0ffffffffH
	DDSymXIndex: 	FLAT:stbi_write_tga_to_func
	DD	026H
	DD	087H
_volmd	DD	0ffffffffH
	DDSymXIndex: 	FLAT:stbi_write_bmp_to_func
	DD	026H
	DD	087H
_volmd	DD	0ffffffffH
	DDSymXIndex: 	FLAT:stbi_write_jpg
	DD	025H
	DD	0a5H
_volmd	DD	0ffffffffH
	DDSymXIndex: 	FLAT:stbi_write_hdr
	DD	025H
	DD	09aH
_volmd	DD	0ffffffffH
	DDSymXIndex: 	FLAT:stbi_write_tga
	DD	025H
	DD	09aH
_volmd	DD	0ffffffffH
	DDSymXIndex: 	FLAT:stbi_write_bmp
	DD	025H
	DD	09aH
_volmd	DD	0ffffffffH
	DDSymXIndex: 	FLAT:stbir__encode_scanline
	DD	024H
	DD	08f1H
_volmd	DD	0ffffffffH
	DDSymXIndex: 	FLAT:stbir_resize_subpixel
	DD	024H
	DD	01a9H
_volmd	DD	0ffffffffH
	DDSymXIndex: 	FLAT:stbi__pic_load_core
	DD	024H
	DD	0640H
_volmd	DD	0ffffffffH
	DDSymXIndex: 	FLAT:stbi__parse_png_file
	DD	021H
	DD	0e27H
_volmd	DD	0ffffffffH
	DDSymXIndex: 	FLAT:stbi__create_png_image
	DD	027H
	DD	057dH
_volmd	DD	0ffffffffH
	DDSymXIndex: 	FLAT:stbi__compute_huffman_codes
	DD	016H
	DD	02fbH
_volmd	DD	0ffffffffH
	DDSymXIndex: 	FLAT:stbi__zbuild_huffman
	DD	020H
	DD	0368H
_volmd	DD	0ffffffffH
	DDSymXIndex: 	FLAT:load_jpeg_image
	DD	025H
	DD	01190H
_volmd	DD	0ffffffffH
	DDSymXIndex: 	FLAT:stbi__process_marker
	DD	01aH
	DD	069cH
_volmd	DD	0ffffffffH
	DDSymXIndex: 	FLAT:stbi__parse_entropy_coded_data
	DD	016H
	DD	0c3cH
_volmd	DD	0ffffffffH
	DDSymXIndex: 	FLAT:stbi__idct_block
	DD	01fH
	DD	0a83H
_volmd	DD	0ffffffffH
	DDSymXIndex: 	FLAT:stbi__loadf_main
	DD	022H
	DD	0167H
_volmd	DD	0ffffffffH
	DDSymXIndex: 	FLAT:stbi__load_and_postprocess_16bit
	DD	025H
	DD	01b6H
_volmd	DD	0ffffffffH
	DDSymXIndex: 	FLAT:stbi__load_and_postprocess_8bit
	DD	025H
	DD	01b0H
_volmd	DD	0ffffffffH
	DDSymXIndex: 	FLAT:stbi__vertical_flip
	DD	024H
	DD	0182H
_volmd	DD	0ffffffffH
	DDSymXIndex: 	FLAT:stbi__load_gif_main
	DD	02dH
	DD	0586H
_volmd	DD	0ffffffffH
	DDSymXIndex: 	FLAT:stbi__gif_load
	DD	02dH
	DD	0216H
_volmd	DD	0ffffffffH
	DDSymXIndex: 	FLAT:stbi__pic_info
	DD	022H
	DD	0270H
_volmd	DD	0ffffffffH
	DDSymXIndex: 	FLAT:stbi__hdr_info
	DD	025H
	DD	0203H
_volmd	DD	0ffffffffH
	DDSymXIndex: 	FLAT:stbi__hdr_load
	DD	027H
	DD	0bc3H
_volmd	DD	0ffffffffH
	DDSymXIndex: 	FLAT:stbi__bmp_info
	DD	022H
	DD	0e7H
_volmd	DD	0ffffffffH
	DDSymXIndex: 	FLAT:stbi__bmp_load
	DD	027H
	DD	012f4H
_volmd	DD	0ffffffffH
	DDSymXIndex: 	FLAT:stbi__cpuid3
	DD	010H
	DD	03dH
_volmd	DD	0ffffffffH
	DDSymXIndex: 	FLAT:stbi_zlib_decode_noheader_buffer
	DD	02aH
	DD	09cH
_volmd	DD	0ffffffffH
	DDSymXIndex: 	FLAT:stbi_zlib_decode_noheader_malloc
	DD	027H
	DD	012cH
_volmd	DD	0ffffffffH
	DDSymXIndex: 	FLAT:stbi_zlib_decode_buffer
	DD	02aH
	DD	09cH
_volmd	DD	0ffffffffH
	DDSymXIndex: 	FLAT:stbi_zlib_decode_malloc_guesssize_headerflag
	DD	02cH
	DD	013cH
_volmd	DD	0ffffffffH
	DDSymXIndex: 	FLAT:stbi_zlib_decode_malloc_guesssize
	DD	02cH
	DD	0139H
_volmd	DD	0ffffffffH
	DDSymXIndex: 	FLAT:stbi_is_16_bit_from_file
	DD	016H
	DD	067H
_volmd	DD	0ffffffffH
	DDSymXIndex: 	FLAT:stbi_info_from_file
	DD	025H
	DD	08eH
_volmd	DD	0ffffffffH
	DDSymXIndex: 	FLAT:stbi_is_16_bit_from_callbacks
	DD	01bH
	DD	047H
_volmd	DD	0ffffffffH
	DDSymXIndex: 	FLAT:stbi_is_16_bit_from_memory
	DD	01aH
	DD	046H
_volmd	DD	0ffffffffH
	DDSymXIndex: 	FLAT:stbi_info_from_callbacks
	DD	025H
	DD	069H
_volmd	DD	0ffffffffH
	DDSymXIndex: 	FLAT:stbi_info_from_memory
	DD	024H
	DD	068H
_volmd	DD	0ffffffffH
	DDSymXIndex: 	FLAT:stbi_is_hdr_from_file
	DD	016H
	DD	067H
_volmd	DD	0ffffffffH
	DDSymXIndex: 	FLAT:stbi_is_hdr_from_memory
	DD	01aH
	DD	046H
_volmd	DD	0ffffffffH
	DDSymXIndex: 	FLAT:stbi_is_hdr_from_callbacks
	DD	01bH
	DD	047H
_volmd	DD	0ffffffffH
	DDSymXIndex: 	FLAT:stbi_loadf_from_file
	DD	025H
	DD	06cH
_volmd	DD	0ffffffffH
	DDSymXIndex: 	FLAT:stbi_loadf_from_callbacks
	DD	025H
	DD	074H
_volmd	DD	0ffffffffH
	DDSymXIndex: 	FLAT:stbi_loadf_from_memory
	DD	024H
	DD	073H
_volmd	DD	0ffffffffH
	DDSymXIndex: 	FLAT:stbi_load_from_file_16
	DD	025H
	DD	0abH
_volmd	DD	0ffffffffH
	DDSymXIndex: 	FLAT:stbi_load_16_from_callbacks
	DD	025H
	DD	074H
_volmd	DD	0ffffffffH
	DDSymXIndex: 	FLAT:stbi_load_16_from_memory
	DD	024H
	DD	073H
_volmd	DD	0ffffffffH
	DDSymXIndex: 	FLAT:stbi_load_gif_from_memory
	DD	024H
	DD	0123H
_volmd	DD	0ffffffffH
	DDSymXIndex: 	FLAT:stbi_load_from_file
	DD	025H
	DD	0abH
_volmd	DD	0ffffffffH
	DDSymXIndex: 	FLAT:stbi_load_from_callbacks
	DD	025H
	DD	074H
_volmd	DD	0ffffffffH
	DDSymXIndex: 	FLAT:stbi_load_from_memory
	DD	024H
	DD	073H
_volmd	DD	0ffffffffH
	DDSymXIndex: 	FLAT:stbsp_vsnprintf
	DD	024H
	DD	0117H
_volmd	DD	0ffffffffH
	DDSymXIndex: 	FLAT:stbsp_vsprintfcb
	DD	025H
	DD	02b4eH
	DD	02b50H
	DD	032eeH
voltbl	ENDS
xdata	SEGMENT
$unwind$stbsp_vsprintf DD 011301H
	DD	06213H
$unwind$stbsp_vsnprintf DD 022c19H
	DD	04d011aH
	DD	imagerel __GSHandlerCheck
	DD	0250H
$unwind$stbsp_sprintf DD 011801H
	DD	08218H
$unwind$stbsp_snprintf DD 011701H
	DD	06217H
$unwind$stbsp_vsprintfcb DD 022d19H
	DD	08d011bH
	DD	imagerel __GSHandlerCheck
	DD	0450H
$unwind$stbsp__real_to_str DD 021b01H
	DD	017011bH
$unwind$stbsp__real_to_parts DD 011401H
	DD	04214H
$unwind$stbsp__strlen_limited DD 010d01H
	DD	0220dH
$unwind$stbsp__clamp_callback DD 011301H
	DD	06213H
$unwind$stbsp__count_clamp_callback DD 011301H
	DD	02213H
$unwind$stbsp__raise_to_power10 DD 021c01H
	DD	035011cH
$unwind$ccuserallocator_ DD 031501H
	DD	070118215H
	DD	06010H
$unwind$cccaller DD 031901H
	DD	070154219H
	DD	06014H
$unwind$ccformatvex DD 011701H
	DD	04217H
$unwind$ccformatv DD 010e01H
	DD	0420eH
$unwind$ccformatex DD 011701H
	DD	06217H
$unwind$ccformat DD 011801H
	DD	06218H
$unwind$ccopenfile DD 041301H
	DD	01b0113H
	DD	0600b700cH
$unwind$ccrealfile DD 010901H
	DD	02209H
$unwind$ccclosefile DD 010901H
	DD	04209H
$unwind$ccpullfile DD 041701H
	DD	01b0117H
	DD	0600f7010H
$unwind$ccfilesize DD 010901H
	DD	04209H
$unwind$ccdebug_ DD 030701H
	DD	07003e207H
	DD	06002H
$unwind$ccfilename DD 010901H
	DD	02209H
$unwind$cctrace_ DD 011801H
	DD	0c218H
$unwind$ccsentry_block_check DD 041301H
	DD	0710113H
	DD	0600b700cH
$unwind$ccout DD 010901H
	DD	04209H
$unwind$stbi_load_from_memory DD 022c19H
	DD	025011aH
	DD	imagerel __GSHandlerCheck
	DD	0110H
$unwind$stbi_load_from_callbacks DD 022d19H
	DD	025011bH
	DD	imagerel __GSHandlerCheck
	DD	0110H
$unwind$stbi_load DD 011801H
	DD	0a218H
$unwind$stbi_load_from_file DD 022d19H
	DD	027011bH
	DD	imagerel __GSHandlerCheck
	DD	0120H
$unwind$stbi_load_gif_from_memory DD 022c19H
	DD	029011aH
	DD	imagerel __GSHandlerCheck
	DD	0130H
$unwind$stbi_load_16_from_memory DD 022c19H
	DD	025011aH
	DD	imagerel __GSHandlerCheck
	DD	0110H
$unwind$stbi_load_16_from_callbacks DD 022d19H
	DD	025011bH
	DD	imagerel __GSHandlerCheck
	DD	0110H
$unwind$stbi_load_16 DD 011801H
	DD	0a218H
$unwind$stbi_load_from_file_16 DD 022d19H
	DD	027011bH
	DD	imagerel __GSHandlerCheck
	DD	0120H
$unwind$stbi_loadf_from_memory DD 022c19H
	DD	025011aH
	DD	imagerel __GSHandlerCheck
	DD	0110H
$unwind$stbi_loadf_from_callbacks DD 022d19H
	DD	025011bH
	DD	imagerel __GSHandlerCheck
	DD	0110H
$unwind$stbi_loadf DD 011801H
	DD	0a218H
$unwind$stbi_loadf_from_file DD 022d19H
	DD	025011bH
	DD	imagerel __GSHandlerCheck
	DD	0110H
$unwind$stbi_is_hdr_from_callbacks DD 022319H
	DD	0230111H
	DD	imagerel __GSHandlerCheck
	DD	0100H
$unwind$stbi_is_hdr_from_memory DD 022219H
	DD	0230110H
	DD	imagerel __GSHandlerCheck
	DD	0100H
$unwind$stbi_is_hdr DD 010901H
	DD	06209H
$unwind$stbi_is_hdr_from_file DD 021e19H
	DD	025010cH
	DD	imagerel __GSHandlerCheck
	DD	0110H
$unwind$stbi_image_free DD 030b01H
	DD	07007e20bH
	DD	06006H
$unwind$stbi_info_from_memory DD 022c19H
	DD	023011aH
	DD	imagerel __GSHandlerCheck
	DD	0100H
$unwind$stbi_info_from_callbacks DD 022d19H
	DD	023011bH
	DD	imagerel __GSHandlerCheck
	DD	0100H
$unwind$stbi_is_16_bit_from_memory DD 022219H
	DD	0230110H
	DD	imagerel __GSHandlerCheck
	DD	0100H
$unwind$stbi_is_16_bit_from_callbacks DD 022319H
	DD	0230111H
	DD	imagerel __GSHandlerCheck
	DD	0100H
$unwind$stbi_info DD 011801H
	DD	06218H
$unwind$stbi_info_from_file DD 022d19H
	DD	025011bH
	DD	imagerel __GSHandlerCheck
	DD	0110H
$unwind$stbi_is_16_bit DD 010901H
	DD	06209H
$unwind$stbi_is_16_bit_from_file DD 021e19H
	DD	025010cH
	DD	imagerel __GSHandlerCheck
	DD	0110H
$unwind$stbi_zlib_decode_malloc_guesssize DD 043419H
	DD	02130122H
	DD	060147015H
	DD	imagerel __GSHandlerCheck
	DD	01080H
$unwind$stbi_zlib_decode_malloc_guesssize_headerflag DD 043419H
	DD	02130122H
	DD	060147015H
	DD	imagerel __GSHandlerCheck
	DD	01080H
$unwind$stbi_zlib_decode_malloc DD 011201H
	DD	04212H
$unwind$stbi_zlib_decode_buffer DD 023219H
	DD	02090120H
	DD	imagerel __GSHandlerCheck
	DD	01030H
$unwind$stbi_zlib_decode_noheader_malloc DD 042f19H
	DD	0213011dH
	DD	0600f7010H
	DD	imagerel __GSHandlerCheck
	DD	01080H
$unwind$stbi_zlib_decode_noheader_buffer DD 023219H
	DD	02090120H
	DD	imagerel __GSHandlerCheck
	DD	01030H
$unwind$stbi__cpuid3 DD 021519H
	DD	030023206H
	DD	imagerel __GSHandlerCheck
	DD	010H
$unwind$stbi__sse2_available DD 010401H
	DD	06204H
$unwind$stbi__refill_buffer DD 010901H
	DD	06209H
$unwind$stbi__start_mem DD 011301H
	DD	02213H
$unwind$stbi__start_callbacks DD 031501H
	DD	070116215H
	DD	06010H
$unwind$stbi__stdio_read DD 011301H
	DD	04213H
$unwind$stbi__stdio_skip DD 010d01H
	DD	0620dH
$unwind$stbi__stdio_eof DD 010901H
	DD	06209H
$unwind$stbi__start_file DD 010e01H
	DD	0420eH
$unwind$stbi__jpeg_test DD 040e01H
	DD	011010eH
	DD	060067007H
$unwind$stbi__jpeg_load DD 041d01H
	DD	013011dH
	DD	060157016H
$unwind$stbi__jpeg_info DD 041d01H
	DD	011011dH
	DD	060157016H
$unwind$stbi__png_test DD 010901H
	DD	06209H
$unwind$stbi__png_load DD 011801H
	DD	0c218H
$unwind$stbi__png_info DD 011801H
	DD	0a218H
$unwind$stbi__png_is16 DD 010901H
	DD	0a209H
$unwind$stbi__bmp_test DD 010901H
	DD	06209H
$unwind$stbi__bmp_load DD 042f19H
	DD	0cf011dH
	DD	060157016H
	DD	imagerel __GSHandlerCheck
	DD	0660H
$unwind$stbi__bmp_info DD 012719H
	DD	0c218H
	DD	imagerel __GSHandlerCheck
	DD	058H
$unwind$stbi__tga_test DD 010901H
	DD	06209H
$unwind$stbi__tga_load DD 041d01H
	DD	04d011dH
	DD	060157016H
$unwind$stbi__tga_info DD 011801H
	DD	0a218H
$unwind$stbi__psd_test DD 010901H
	DD	06209H
$unwind$stbi__psd_load DD 041d01H
	DD	02d011dH
	DD	060157016H
$unwind$stbi__psd_info DD 011801H
	DD	06218H
$unwind$stbi__psd_is16 DD 010901H
	DD	06209H
$unwind$stbi__hdr_test DD 010901H
	DD	06209H
$unwind$stbi__hdr_load DD 042f19H
	DD	0eb011dH
	DD	060157016H
	DD	imagerel __GSHandlerCheck
	DD	0740H
$unwind$stbi__hdr_info DD 022d19H
	DD	089011bH
	DD	imagerel __GSHandlerCheck
	DD	0430H
$unwind$stbi__pic_test DD 010901H
	DD	06209H
$unwind$stbi__pic_load DD 041d01H
	DD	019011dH
	DD	060157016H
$unwind$stbi__pic_info DD 012719H
	DD	0e218H
